
lcd_dale.elf:     file format elf32-avr

Sections:
Idx Name          Size      VMA       LMA       File off  Algn
  0 .data         00000000  00800200  00800200  0000030e  2**0
                  CONTENTS, ALLOC, LOAD, DATA
  1 .text         000002ba  00000000  00000000  00000054  2**1
                  CONTENTS, ALLOC, LOAD, READONLY, CODE
  2 .comment      00000030  00000000  00000000  0000030e  2**0
                  CONTENTS, READONLY
  3 .note.gnu.avr.deviceinfo 00000040  00000000  00000000  00000340  2**2
                  CONTENTS, READONLY
  4 .debug_aranges 000000f0  00000000  00000000  00000380  2**0
                  CONTENTS, READONLY, DEBUGGING
  5 .debug_info   00001173  00000000  00000000  00000470  2**0
                  CONTENTS, READONLY, DEBUGGING
  6 .debug_abbrev 00000d25  00000000  00000000  000015e3  2**0
                  CONTENTS, READONLY, DEBUGGING
  7 .debug_line   0000076b  00000000  00000000  00002308  2**0
                  CONTENTS, READONLY, DEBUGGING
  8 .debug_frame  000001f4  00000000  00000000  00002a74  2**2
                  CONTENTS, READONLY, DEBUGGING
  9 .debug_str    00000659  00000000  00000000  00002c68  2**0
                  CONTENTS, READONLY, DEBUGGING
 10 .debug_loc    000001e8  00000000  00000000  000032c1  2**0
                  CONTENTS, READONLY, DEBUGGING
 11 .debug_ranges 000000c0  00000000  00000000  000034a9  2**0
                  CONTENTS, READONLY, DEBUGGING

Disassembly of section .text:

00000000 <__vectors>:
   0:	71 c0       	rjmp	.+226    	; 0xe4 <__ctors_end>
   2:	00 00       	nop
   4:	81 c0       	rjmp	.+258    	; 0x108 <__bad_interrupt>
   6:	00 00       	nop
   8:	7f c0       	rjmp	.+254    	; 0x108 <__bad_interrupt>
   a:	00 00       	nop
   c:	7d c0       	rjmp	.+250    	; 0x108 <__bad_interrupt>
   e:	00 00       	nop
  10:	7b c0       	rjmp	.+246    	; 0x108 <__bad_interrupt>
  12:	00 00       	nop
  14:	79 c0       	rjmp	.+242    	; 0x108 <__bad_interrupt>
  16:	00 00       	nop
  18:	77 c0       	rjmp	.+238    	; 0x108 <__bad_interrupt>
  1a:	00 00       	nop
  1c:	75 c0       	rjmp	.+234    	; 0x108 <__bad_interrupt>
  1e:	00 00       	nop
  20:	73 c0       	rjmp	.+230    	; 0x108 <__bad_interrupt>
  22:	00 00       	nop
  24:	71 c0       	rjmp	.+226    	; 0x108 <__bad_interrupt>
  26:	00 00       	nop
  28:	6f c0       	rjmp	.+222    	; 0x108 <__bad_interrupt>
  2a:	00 00       	nop
  2c:	6d c0       	rjmp	.+218    	; 0x108 <__bad_interrupt>
  2e:	00 00       	nop
  30:	6b c0       	rjmp	.+214    	; 0x108 <__bad_interrupt>
  32:	00 00       	nop
  34:	69 c0       	rjmp	.+210    	; 0x108 <__bad_interrupt>
  36:	00 00       	nop
  38:	67 c0       	rjmp	.+206    	; 0x108 <__bad_interrupt>
  3a:	00 00       	nop
  3c:	65 c0       	rjmp	.+202    	; 0x108 <__bad_interrupt>
  3e:	00 00       	nop
  40:	63 c0       	rjmp	.+198    	; 0x108 <__bad_interrupt>
  42:	00 00       	nop
  44:	61 c0       	rjmp	.+194    	; 0x108 <__bad_interrupt>
  46:	00 00       	nop
  48:	5f c0       	rjmp	.+190    	; 0x108 <__bad_interrupt>
  4a:	00 00       	nop
  4c:	5d c0       	rjmp	.+186    	; 0x108 <__bad_interrupt>
  4e:	00 00       	nop
  50:	df c0       	rjmp	.+446    	; 0x210 <__vector_20>
  52:	00 00       	nop
  54:	59 c0       	rjmp	.+178    	; 0x108 <__bad_interrupt>
  56:	00 00       	nop
  58:	57 c0       	rjmp	.+174    	; 0x108 <__bad_interrupt>
  5a:	00 00       	nop
  5c:	55 c0       	rjmp	.+170    	; 0x108 <__bad_interrupt>
  5e:	00 00       	nop
  60:	53 c0       	rjmp	.+166    	; 0x108 <__bad_interrupt>
  62:	00 00       	nop
  64:	51 c0       	rjmp	.+162    	; 0x108 <__bad_interrupt>
  66:	00 00       	nop
  68:	4f c0       	rjmp	.+158    	; 0x108 <__bad_interrupt>
  6a:	00 00       	nop
  6c:	4d c0       	rjmp	.+154    	; 0x108 <__bad_interrupt>
  6e:	00 00       	nop
  70:	4b c0       	rjmp	.+150    	; 0x108 <__bad_interrupt>
  72:	00 00       	nop
  74:	49 c0       	rjmp	.+146    	; 0x108 <__bad_interrupt>
  76:	00 00       	nop
  78:	47 c0       	rjmp	.+142    	; 0x108 <__bad_interrupt>
  7a:	00 00       	nop
  7c:	45 c0       	rjmp	.+138    	; 0x108 <__bad_interrupt>
  7e:	00 00       	nop
  80:	43 c0       	rjmp	.+134    	; 0x108 <__bad_interrupt>
  82:	00 00       	nop
  84:	41 c0       	rjmp	.+130    	; 0x108 <__bad_interrupt>
  86:	00 00       	nop
  88:	3f c0       	rjmp	.+126    	; 0x108 <__bad_interrupt>
  8a:	00 00       	nop
  8c:	dd c0       	rjmp	.+442    	; 0x248 <__vector_35>
  8e:	00 00       	nop
  90:	3b c0       	rjmp	.+118    	; 0x108 <__bad_interrupt>
  92:	00 00       	nop
  94:	39 c0       	rjmp	.+114    	; 0x108 <__bad_interrupt>
  96:	00 00       	nop
  98:	37 c0       	rjmp	.+110    	; 0x108 <__bad_interrupt>
  9a:	00 00       	nop
  9c:	35 c0       	rjmp	.+106    	; 0x108 <__bad_interrupt>
  9e:	00 00       	nop
  a0:	33 c0       	rjmp	.+102    	; 0x108 <__bad_interrupt>
  a2:	00 00       	nop
  a4:	31 c0       	rjmp	.+98     	; 0x108 <__bad_interrupt>
  a6:	00 00       	nop
  a8:	2f c0       	rjmp	.+94     	; 0x108 <__bad_interrupt>
  aa:	00 00       	nop
  ac:	2d c0       	rjmp	.+90     	; 0x108 <__bad_interrupt>
  ae:	00 00       	nop
  b0:	2b c0       	rjmp	.+86     	; 0x108 <__bad_interrupt>
  b2:	00 00       	nop
  b4:	e5 c0       	rjmp	.+458    	; 0x280 <__vector_45>
  b6:	00 00       	nop
  b8:	27 c0       	rjmp	.+78     	; 0x108 <__bad_interrupt>
  ba:	00 00       	nop
  bc:	25 c0       	rjmp	.+74     	; 0x108 <__bad_interrupt>
  be:	00 00       	nop
  c0:	23 c0       	rjmp	.+70     	; 0x108 <__bad_interrupt>
  c2:	00 00       	nop
  c4:	21 c0       	rjmp	.+66     	; 0x108 <__bad_interrupt>
  c6:	00 00       	nop
  c8:	1f c0       	rjmp	.+62     	; 0x108 <__bad_interrupt>
  ca:	00 00       	nop
  cc:	1d c0       	rjmp	.+58     	; 0x108 <__bad_interrupt>
  ce:	00 00       	nop
  d0:	1b c0       	rjmp	.+54     	; 0x108 <__bad_interrupt>
  d2:	00 00       	nop
  d4:	19 c0       	rjmp	.+50     	; 0x108 <__bad_interrupt>
  d6:	00 00       	nop
  d8:	17 c0       	rjmp	.+46     	; 0x108 <__bad_interrupt>
  da:	00 00       	nop
  dc:	15 c0       	rjmp	.+42     	; 0x108 <__bad_interrupt>
  de:	00 00       	nop
  e0:	13 c0       	rjmp	.+38     	; 0x108 <__bad_interrupt>
	...

000000e4 <__ctors_end>:
  e4:	11 24       	eor	r1, r1
  e6:	1f be       	out	0x3f, r1	; 63
  e8:	cf ef       	ldi	r28, 0xFF	; 255
  ea:	d1 e2       	ldi	r29, 0x21	; 33
  ec:	de bf       	out	0x3e, r29	; 62
  ee:	cd bf       	out	0x3d, r28	; 61
  f0:	00 e0       	ldi	r16, 0x00	; 0
  f2:	0c bf       	out	0x3c, r16	; 60

000000f4 <__do_clear_bss>:
  f4:	22 e0       	ldi	r18, 0x02	; 2
  f6:	a0 e0       	ldi	r26, 0x00	; 0
  f8:	b2 e0       	ldi	r27, 0x02	; 2
  fa:	01 c0       	rjmp	.+2      	; 0xfe <.do_clear_bss_start>

000000fc <.do_clear_bss_loop>:
  fc:	1d 92       	st	X+, r1

000000fe <.do_clear_bss_start>:
  fe:	a0 30       	cpi	r26, 0x00	; 0
 100:	b2 07       	cpc	r27, r18
 102:	e1 f7       	brne	.-8      	; 0xfc <.do_clear_bss_loop>
 104:	68 d0       	rcall	.+208    	; 0x1d6 <main>
 106:	d7 c0       	rjmp	.+430    	; 0x2b6 <_exit>

00000108 <__bad_interrupt>:
 108:	7b cf       	rjmp	.-266    	; 0x0 <__vectors>

0000010a <config_delay_timer0_CTC>:
		
		while(*string != 0){
			send_data(*string);
			string++;
		}
	}
 10a:	92 e0       	ldi	r25, 0x02	; 2
 10c:	94 bd       	out	0x24, r25	; 36
 10e:	87 bd       	out	0x27, r24	; 39
 110:	95 bb       	out	0x15, r25	; 21
 112:	08 95       	ret

00000114 <delay_CTC>:
 114:	16 bc       	out	0x26, r1	; 38
 116:	82 e0       	ldi	r24, 0x02	; 2
 118:	85 bb       	out	0x15, r24	; 21
 11a:	81 e0       	ldi	r24, 0x01	; 1
 11c:	85 bd       	out	0x25, r24	; 37
 11e:	a9 9b       	sbis	0x15, 1	; 21
 120:	fe cf       	rjmp	.-4      	; 0x11e <delay_CTC+0xa>
 122:	15 bc       	out	0x25, r1	; 37
 124:	08 95       	ret

00000126 <config_porta_avr>:
 126:	8f ef       	ldi	r24, 0xFF	; 255
 128:	81 b9       	out	0x01, r24	; 1
 12a:	80 ee       	ldi	r24, 0xE0	; 224
 12c:	87 b9       	out	0x07, r24	; 7
 12e:	08 95       	ret

00000130 <trigger_EN>:
 130:	8f ef       	ldi	r24, 0xFF	; 255
 132:	eb df       	rcall	.-42     	; 0x10a <config_delay_timer0_CTC>
 134:	88 b1       	in	r24, 0x08	; 8
 136:	80 64       	ori	r24, 0x40	; 64
 138:	88 b9       	out	0x08, r24	; 8
 13a:	ec df       	rcall	.-40     	; 0x114 <delay_CTC>
 13c:	88 b1       	in	r24, 0x08	; 8
 13e:	8f 7b       	andi	r24, 0xBF	; 191
 140:	88 b9       	out	0x08, r24	; 8
 142:	e8 cf       	rjmp	.-48     	; 0x114 <delay_CTC>
 144:	08 95       	ret

00000146 <send_data>:
 146:	cf 93       	push	r28
 148:	c8 2f       	mov	r28, r24
 14a:	8f ef       	ldi	r24, 0xFF	; 255
 14c:	de df       	rcall	.-68     	; 0x10a <config_delay_timer0_CTC>
 14e:	88 b1       	in	r24, 0x08	; 8
 150:	80 68       	ori	r24, 0x80	; 128
 152:	88 b9       	out	0x08, r24	; 8
 154:	8c 2f       	mov	r24, r28
 156:	80 7f       	andi	r24, 0xF0	; 240
 158:	82 b9       	out	0x02, r24	; 2
 15a:	ea df       	rcall	.-44     	; 0x130 <trigger_EN>
 15c:	db df       	rcall	.-74     	; 0x114 <delay_CTC>
 15e:	da df       	rcall	.-76     	; 0x114 <delay_CTC>
 160:	d9 df       	rcall	.-78     	; 0x114 <delay_CTC>
 162:	20 e1       	ldi	r18, 0x10	; 16
 164:	c2 9f       	mul	r28, r18
 166:	c0 01       	movw	r24, r0
 168:	11 24       	eor	r1, r1
 16a:	82 b9       	out	0x02, r24	; 2
 16c:	e1 df       	rcall	.-62     	; 0x130 <trigger_EN>
 16e:	d2 df       	rcall	.-92     	; 0x114 <delay_CTC>
 170:	d1 df       	rcall	.-94     	; 0x114 <delay_CTC>
 172:	d0 df       	rcall	.-96     	; 0x114 <delay_CTC>
 174:	cf 91       	pop	r28
 176:	08 95       	ret

00000178 <send_command>:
 178:	cf 93       	push	r28
 17a:	c8 2f       	mov	r28, r24
 17c:	8f ef       	ldi	r24, 0xFF	; 255
 17e:	c5 df       	rcall	.-118    	; 0x10a <config_delay_timer0_CTC>
 180:	88 b1       	in	r24, 0x08	; 8
 182:	8f 77       	andi	r24, 0x7F	; 127
 184:	88 b9       	out	0x08, r24	; 8
 186:	8c 2f       	mov	r24, r28
 188:	80 7f       	andi	r24, 0xF0	; 240
 18a:	82 b9       	out	0x02, r24	; 2
 18c:	d1 df       	rcall	.-94     	; 0x130 <trigger_EN>
 18e:	c2 df       	rcall	.-124    	; 0x114 <delay_CTC>
 190:	c1 df       	rcall	.-126    	; 0x114 <delay_CTC>
 192:	c0 df       	rcall	.-128    	; 0x114 <delay_CTC>
 194:	20 e1       	ldi	r18, 0x10	; 16
 196:	c2 9f       	mul	r28, r18
 198:	c0 01       	movw	r24, r0
 19a:	11 24       	eor	r1, r1
 19c:	82 b9       	out	0x02, r24	; 2
 19e:	c8 df       	rcall	.-112    	; 0x130 <trigger_EN>
 1a0:	b9 df       	rcall	.-142    	; 0x114 <delay_CTC>
 1a2:	b8 df       	rcall	.-144    	; 0x114 <delay_CTC>
 1a4:	b7 df       	rcall	.-146    	; 0x114 <delay_CTC>
 1a6:	cf 91       	pop	r28
 1a8:	08 95       	ret

000001aa <limpa_reseta_cursor>:
	
	
	void limpa_reseta_cursor(){
		//Limpa display e reseta posição do cursor
		send_command(0x01);
 1aa:	81 e0       	ldi	r24, 0x01	; 1
 1ac:	e5 df       	rcall	.-54     	; 0x178 <send_command>
		delay_CTC();
 1ae:	b2 df       	rcall	.-156    	; 0x114 <delay_CTC>
		delay_CTC();
 1b0:	b1 df       	rcall	.-158    	; 0x114 <delay_CTC>
 1b2:	b0 cf       	rjmp	.-160    	; 0x114 <delay_CTC>
		delay_CTC();
 1b4:	08 95       	ret

000001b6 <config_lcd_padrao>:
 1b6:	88 b1       	in	r24, 0x08	; 8
 1b8:	8f 7d       	andi	r24, 0xDF	; 223
		
		//FUNCTION SET:
		//Interface 4 bits
		//2 linhas
		//Caracteres 5x10
		PORTC &= ~(1<<5);
 1ba:	88 b9       	out	0x08, r24	; 8
		PORTC &= ~(1<<7);
 1bc:	88 b1       	in	r24, 0x08	; 8
 1be:	8f 77       	andi	r24, 0x7F	; 127
 1c0:	88 b9       	out	0x08, r24	; 8
		PORTA = 0x28;
 1c2:	88 e2       	ldi	r24, 0x28	; 40
 1c4:	82 b9       	out	0x02, r24	; 2
		trigger_EN();
 1c6:	b4 df       	rcall	.-152    	; 0x130 <trigger_EN>
		
		
		
		//ENTRY MODE SET:
		//Incrementa posição do cursor
		send_command(0x06);
 1c8:	86 e0       	ldi	r24, 0x06	; 6
 1ca:	d6 df       	rcall	.-84     	; 0x178 <send_command>
		
		
		//CURSOR/DISPLAY SHIFT:
		//Cursor move
		//Para direita
		send_command(0x14);
 1cc:	84 e1       	ldi	r24, 0x14	; 20
 1ce:	d4 df       	rcall	.-88     	; 0x178 <send_command>
		
		//DISPLAY CONTROL:
		//Display ligado
		//Cursor ligado
		//Cursor não pisca
		send_command(0x0E);
 1d0:	8e e0       	ldi	r24, 0x0E	; 14
 1d2:	d2 cf       	rjmp	.-92     	; 0x178 <send_command>
 1d4:	08 95       	ret

000001d6 <main>:
 1d6:	a7 df       	rcall	.-178    	; 0x126 <config_porta_avr>
#include "lcdio.h"
#include "timers.h"
int main(void)
{
	config_porta_avr();
	config_lcd_padrao();
 1d8:	ee df       	rcall	.-36     	; 0x1b6 <config_lcd_padrao>
	limpa_reseta_cursor();
 1da:	e7 df       	rcall	.-50     	; 0x1aa <limpa_reseta_cursor>
	delay_1s();
 1dc:	09 d0       	rcall	.+18     	; 0x1f0 <delay_1s>
	send_data(0x30);
 1de:	80 e3       	ldi	r24, 0x30	; 48
 1e0:	b2 df       	rcall	.-156    	; 0x146 <send_data>
	send_command(0xC0);
 1e2:	80 ec       	ldi	r24, 0xC0	; 192
 1e4:	c9 df       	rcall	.-110    	; 0x178 <send_command>
	send_data(0x41);
 1e6:	81 e4       	ldi	r24, 0x41	; 65
 1e8:	ae df       	rcall	.-164    	; 0x146 <send_data>
 1ea:	81 e2       	ldi	r24, 0x21	; 33
	send_data(0x21);
 1ec:	ac df       	rcall	.-168    	; 0x146 <send_data>
 1ee:	ff cf       	rjmp	.-2      	; 0x1ee <main+0x18>

000001f0 <delay_1s>:
 1f0:	10 92 20 01 	sts	0x0120, r1	; 0x800120 <__TEXT_REGION_LENGTH__+0x7c0120>
}

//esse delay acho q n vai precisar interrupção
void delay_1s(){
	TCCR5A = 0; //modo normal
	TCCR5B = 0x4; //prescaler de 256
 1f4:	84 e0       	ldi	r24, 0x04	; 4
 1f6:	80 93 21 01 	sts	0x0121, r24	; 0x800121 <__TEXT_REGION_LENGTH__+0x7c0121>
	TCNT5 = 3036; //como o processador tem 16Mhz e o timer tem 16bits, precisamos de 4000000 contagens p bater meio periodo da onda de 2hz. 4000000/64 = 62500
 1fa:	8c ed       	ldi	r24, 0xDC	; 220
 1fc:	9b e0       	ldi	r25, 0x0B	; 11
 1fe:	90 93 25 01 	sts	0x0125, r25	; 0x800125 <__TEXT_REGION_LENGTH__+0x7c0125>
 202:	80 93 24 01 	sts	0x0124, r24	; 0x800124 <__TEXT_REGION_LENGTH__+0x7c0124>
	TIFR5 = (1<<0); //limpa flag
 206:	81 e0       	ldi	r24, 0x01	; 1
 208:	8a bb       	out	0x1a, r24	; 26
	while((TIFR5 & (1<<0)) == 0); //espera overflow
 20a:	d0 9b       	sbis	0x1a, 0	; 26
 20c:	fe cf       	rjmp	.-4      	; 0x20a <delay_1s+0x1a>
}
 20e:	08 95       	ret

00000210 <__vector_20>:


ISR(TIMER1_OVF_vect){
 210:	1f 92       	push	r1
 212:	0f 92       	push	r0
 214:	0f b6       	in	r0, 0x3f	; 63
 216:	0f 92       	push	r0
 218:	11 24       	eor	r1, r1
 21a:	2f 93       	push	r18
 21c:	3f 93       	push	r19
 21e:	8f 93       	push	r24
	TCCR1A = 0; //modo normal
 220:	10 92 80 00 	sts	0x0080, r1	; 0x800080 <__TEXT_REGION_LENGTH__+0x7c0080>
	TCCR1B = 0x1; //sem prescaler
 224:	81 e0       	ldi	r24, 0x01	; 1
 226:	80 93 81 00 	sts	0x0081, r24	; 0x800081 <__TEXT_REGION_LENGTH__+0x7c0081>
	TCNT1 = 55536; //como o processador tem 16Mhz e o timer tem 16bits, precisamos de 10000 contagens p bater meio periodo da onda de 800hz
 22a:	20 ef       	ldi	r18, 0xF0	; 240
 22c:	38 ed       	ldi	r19, 0xD8	; 216
 22e:	30 93 85 00 	sts	0x0085, r19	; 0x800085 <__TEXT_REGION_LENGTH__+0x7c0085>
 232:	20 93 84 00 	sts	0x0084, r18	; 0x800084 <__TEXT_REGION_LENGTH__+0x7c0084>
	TIFR1 = 1;
 236:	86 bb       	out	0x16, r24	; 22
}
 238:	8f 91       	pop	r24
 23a:	3f 91       	pop	r19
 23c:	2f 91       	pop	r18
 23e:	0f 90       	pop	r0
 240:	0f be       	out	0x3f, r0	; 63
 242:	0f 90       	pop	r0
 244:	1f 90       	pop	r1
 246:	18 95       	reti

00000248 <__vector_35>:
ISR(TIMER3_OVF_vect){
 248:	1f 92       	push	r1
 24a:	0f 92       	push	r0
 24c:	0f b6       	in	r0, 0x3f	; 63
 24e:	0f 92       	push	r0
 250:	11 24       	eor	r1, r1
 252:	2f 93       	push	r18
 254:	3f 93       	push	r19
 256:	8f 93       	push	r24
	TCCR3A = 0; //modo normal
 258:	10 92 90 00 	sts	0x0090, r1	; 0x800090 <__TEXT_REGION_LENGTH__+0x7c0090>
	TCCR3B = 0x1; //sem prescaler
 25c:	81 e0       	ldi	r24, 0x01	; 1
 25e:	80 93 91 00 	sts	0x0091, r24	; 0x800091 <__TEXT_REGION_LENGTH__+0x7c0091>
	TCNT3 = 45536; //como o processador tem 16Mhz e o timer tem 16bits, precisamos de 20000 contagens p bater meio periodo da onda de 400hz
 262:	20 ee       	ldi	r18, 0xE0	; 224
 264:	31 eb       	ldi	r19, 0xB1	; 177
 266:	30 93 95 00 	sts	0x0095, r19	; 0x800095 <__TEXT_REGION_LENGTH__+0x7c0095>
 26a:	20 93 94 00 	sts	0x0094, r18	; 0x800094 <__TEXT_REGION_LENGTH__+0x7c0094>
	TIFR3 = 1;
 26e:	88 bb       	out	0x18, r24	; 24
}
 270:	8f 91       	pop	r24
 272:	3f 91       	pop	r19
 274:	2f 91       	pop	r18
 276:	0f 90       	pop	r0
 278:	0f be       	out	0x3f, r0	; 63
 27a:	0f 90       	pop	r0
 27c:	1f 90       	pop	r1
 27e:	18 95       	reti

00000280 <__vector_45>:

ISR(TIMER4_OVF_vect){
 280:	1f 92       	push	r1
 282:	0f 92       	push	r0
 284:	0f b6       	in	r0, 0x3f	; 63
 286:	0f 92       	push	r0
 288:	11 24       	eor	r1, r1
 28a:	8f 93       	push	r24
 28c:	9f 93       	push	r25
	TCCR4A = 0; //modo normal
 28e:	10 92 a0 00 	sts	0x00A0, r1	; 0x8000a0 <__TEXT_REGION_LENGTH__+0x7c00a0>
	TCCR4B = 0x3; //prescaler de 64
 292:	83 e0       	ldi	r24, 0x03	; 3
 294:	80 93 a1 00 	sts	0x00A1, r24	; 0x8000a1 <__TEXT_REGION_LENGTH__+0x7c00a1>
	TCNT4 = 3036; //como o processador tem 16Mhz e o timer tem 16bits, precisamos de 4000000 contagens p bater meio periodo da onda de 2hz. 4000000/64 = 62500
 298:	8c ed       	ldi	r24, 0xDC	; 220
 29a:	9b e0       	ldi	r25, 0x0B	; 11
 29c:	90 93 a5 00 	sts	0x00A5, r25	; 0x8000a5 <__TEXT_REGION_LENGTH__+0x7c00a5>
 2a0:	80 93 a4 00 	sts	0x00A4, r24	; 0x8000a4 <__TEXT_REGION_LENGTH__+0x7c00a4>
	TIFR4 = 1;
 2a4:	81 e0       	ldi	r24, 0x01	; 1
 2a6:	89 bb       	out	0x19, r24	; 25
}
 2a8:	9f 91       	pop	r25
 2aa:	8f 91       	pop	r24
 2ac:	0f 90       	pop	r0
 2ae:	0f be       	out	0x3f, r0	; 63
 2b0:	0f 90       	pop	r0
 2b2:	1f 90       	pop	r1
 2b4:	18 95       	reti

000002b6 <_exit>:
 2b6:	f8 94       	cli

000002b8 <__stop_program>:
 2b8:	ff cf       	rjmp	.-2      	; 0x2b8 <__stop_program>
