
lcd_dale.elf:     file format elf32-avr

Sections:
Idx Name          Size      VMA       LMA       File off  Algn
  0 .data         000002c0  00800200  000011c8  0000125c  2**0
                  CONTENTS, ALLOC, LOAD, DATA
  1 .text         000011c8  00000000  00000000  00000094  2**1
                  CONTENTS, ALLOC, LOAD, READONLY, CODE
  2 .bss          00000026  008004c0  008004c0  0000151c  2**0
                  ALLOC
  3 .comment      00000030  00000000  00000000  0000151c  2**0
                  CONTENTS, READONLY
  4 .note.gnu.avr.deviceinfo 00000040  00000000  00000000  0000154c  2**2
                  CONTENTS, READONLY
  5 .debug_aranges 00000340  00000000  00000000  0000158c  2**0
                  CONTENTS, READONLY, DEBUGGING
  6 .debug_info   000045a5  00000000  00000000  000018cc  2**0
                  CONTENTS, READONLY, DEBUGGING
  7 .debug_abbrev 00001582  00000000  00000000  00005e71  2**0
                  CONTENTS, READONLY, DEBUGGING
  8 .debug_line   00001f5d  00000000  00000000  000073f3  2**0
                  CONTENTS, READONLY, DEBUGGING
  9 .debug_frame  00000798  00000000  00000000  00009350  2**2
                  CONTENTS, READONLY, DEBUGGING
 10 .debug_str    00000caa  00000000  00000000  00009ae8  2**0
                  CONTENTS, READONLY, DEBUGGING
 11 .debug_loc    00000ab9  00000000  00000000  0000a792  2**0
                  CONTENTS, READONLY, DEBUGGING
 12 .debug_ranges 000002c8  00000000  00000000  0000b24b  2**0
                  CONTENTS, READONLY, DEBUGGING

Disassembly of section .text:

00000000 <__vectors>:
       0:	71 c0       	rjmp	.+226    	; 0xe4 <__ctors_end>
       2:	00 00       	nop
       4:	8f c0       	rjmp	.+286    	; 0x124 <__bad_interrupt>
       6:	00 00       	nop
       8:	8d c0       	rjmp	.+282    	; 0x124 <__bad_interrupt>
       a:	00 00       	nop
       c:	8b c0       	rjmp	.+278    	; 0x124 <__bad_interrupt>
       e:	00 00       	nop
      10:	89 c0       	rjmp	.+274    	; 0x124 <__bad_interrupt>
      12:	00 00       	nop
      14:	87 c0       	rjmp	.+270    	; 0x124 <__bad_interrupt>
      16:	00 00       	nop
      18:	85 c0       	rjmp	.+266    	; 0x124 <__bad_interrupt>
      1a:	00 00       	nop
      1c:	83 c0       	rjmp	.+262    	; 0x124 <__bad_interrupt>
      1e:	00 00       	nop
      20:	81 c0       	rjmp	.+258    	; 0x124 <__bad_interrupt>
      22:	00 00       	nop
      24:	7f c0       	rjmp	.+254    	; 0x124 <__bad_interrupt>
      26:	00 00       	nop
      28:	7d c0       	rjmp	.+250    	; 0x124 <__bad_interrupt>
      2a:	00 00       	nop
      2c:	8a c5       	rjmp	.+2836   	; 0xb42 <__vector_11>
      2e:	00 00       	nop
      30:	79 c0       	rjmp	.+242    	; 0x124 <__bad_interrupt>
      32:	00 00       	nop
      34:	77 c0       	rjmp	.+238    	; 0x124 <__bad_interrupt>
      36:	00 00       	nop
      38:	75 c0       	rjmp	.+234    	; 0x124 <__bad_interrupt>
      3a:	00 00       	nop
      3c:	73 c0       	rjmp	.+230    	; 0x124 <__bad_interrupt>
      3e:	00 00       	nop
      40:	71 c0       	rjmp	.+226    	; 0x124 <__bad_interrupt>
      42:	00 00       	nop
      44:	6f c0       	rjmp	.+222    	; 0x124 <__bad_interrupt>
      46:	00 00       	nop
      48:	6d c0       	rjmp	.+218    	; 0x124 <__bad_interrupt>
      4a:	00 00       	nop
      4c:	6b c0       	rjmp	.+214    	; 0x124 <__bad_interrupt>
      4e:	00 00       	nop
      50:	13 c6       	rjmp	.+3110   	; 0xc78 <__vector_20>
      52:	00 00       	nop
      54:	67 c0       	rjmp	.+206    	; 0x124 <__bad_interrupt>
      56:	00 00       	nop
      58:	65 c0       	rjmp	.+202    	; 0x124 <__bad_interrupt>
      5a:	00 00       	nop
      5c:	63 c0       	rjmp	.+198    	; 0x124 <__bad_interrupt>
      5e:	00 00       	nop
      60:	61 c0       	rjmp	.+194    	; 0x124 <__bad_interrupt>
      62:	00 00       	nop
      64:	86 c6       	rjmp	.+3340   	; 0xd72 <__vector_25>
      66:	00 00       	nop
      68:	5d c0       	rjmp	.+186    	; 0x124 <__bad_interrupt>
      6a:	00 00       	nop
      6c:	5b c0       	rjmp	.+182    	; 0x124 <__bad_interrupt>
      6e:	00 00       	nop
      70:	59 c0       	rjmp	.+178    	; 0x124 <__bad_interrupt>
      72:	00 00       	nop
      74:	57 c0       	rjmp	.+174    	; 0x124 <__bad_interrupt>
      76:	00 00       	nop
      78:	55 c0       	rjmp	.+170    	; 0x124 <__bad_interrupt>
      7a:	00 00       	nop
      7c:	53 c0       	rjmp	.+166    	; 0x124 <__bad_interrupt>
      7e:	00 00       	nop
      80:	51 c0       	rjmp	.+162    	; 0x124 <__bad_interrupt>
      82:	00 00       	nop
      84:	4f c0       	rjmp	.+158    	; 0x124 <__bad_interrupt>
      86:	00 00       	nop
      88:	4d c0       	rjmp	.+154    	; 0x124 <__bad_interrupt>
      8a:	00 00       	nop
      8c:	35 c6       	rjmp	.+3178   	; 0xcf8 <__vector_35>
      8e:	00 00       	nop
      90:	49 c0       	rjmp	.+146    	; 0x124 <__bad_interrupt>
      92:	00 00       	nop
      94:	47 c0       	rjmp	.+142    	; 0x124 <__bad_interrupt>
      96:	00 00       	nop
      98:	45 c0       	rjmp	.+138    	; 0x124 <__bad_interrupt>
      9a:	00 00       	nop
      9c:	43 c0       	rjmp	.+134    	; 0x124 <__bad_interrupt>
      9e:	00 00       	nop
      a0:	41 c0       	rjmp	.+130    	; 0x124 <__bad_interrupt>
      a2:	00 00       	nop
      a4:	3f c0       	rjmp	.+126    	; 0x124 <__bad_interrupt>
      a6:	00 00       	nop
      a8:	3d c0       	rjmp	.+122    	; 0x124 <__bad_interrupt>
      aa:	00 00       	nop
      ac:	3b c0       	rjmp	.+118    	; 0x124 <__bad_interrupt>
      ae:	00 00       	nop
      b0:	39 c0       	rjmp	.+114    	; 0x124 <__bad_interrupt>
      b2:	00 00       	nop
      b4:	a9 c6       	rjmp	.+3410   	; 0xe08 <__vector_45>
      b6:	00 00       	nop
      b8:	35 c0       	rjmp	.+106    	; 0x124 <__bad_interrupt>
      ba:	00 00       	nop
      bc:	33 c0       	rjmp	.+102    	; 0x124 <__bad_interrupt>
      be:	00 00       	nop
      c0:	31 c0       	rjmp	.+98     	; 0x124 <__bad_interrupt>
      c2:	00 00       	nop
      c4:	2f c0       	rjmp	.+94     	; 0x124 <__bad_interrupt>
      c6:	00 00       	nop
      c8:	2d c0       	rjmp	.+90     	; 0x124 <__bad_interrupt>
      ca:	00 00       	nop
      cc:	2b c0       	rjmp	.+86     	; 0x124 <__bad_interrupt>
      ce:	00 00       	nop
      d0:	29 c0       	rjmp	.+82     	; 0x124 <__bad_interrupt>
      d2:	00 00       	nop
      d4:	27 c0       	rjmp	.+78     	; 0x124 <__bad_interrupt>
      d6:	00 00       	nop
      d8:	25 c0       	rjmp	.+74     	; 0x124 <__bad_interrupt>
      da:	00 00       	nop
      dc:	23 c0       	rjmp	.+70     	; 0x124 <__bad_interrupt>
      de:	00 00       	nop
      e0:	21 c0       	rjmp	.+66     	; 0x124 <__bad_interrupt>
	...

000000e4 <__ctors_end>:
      e4:	11 24       	eor	r1, r1
      e6:	1f be       	out	0x3f, r1	; 63
      e8:	cf ef       	ldi	r28, 0xFF	; 255
      ea:	d1 e2       	ldi	r29, 0x21	; 33
      ec:	de bf       	out	0x3e, r29	; 62
      ee:	cd bf       	out	0x3d, r28	; 61
      f0:	00 e0       	ldi	r16, 0x00	; 0
      f2:	0c bf       	out	0x3c, r16	; 60

000000f4 <__do_copy_data>:
      f4:	14 e0       	ldi	r17, 0x04	; 4
      f6:	a0 e0       	ldi	r26, 0x00	; 0
      f8:	b2 e0       	ldi	r27, 0x02	; 2
      fa:	e8 ec       	ldi	r30, 0xC8	; 200
      fc:	f1 e1       	ldi	r31, 0x11	; 17
      fe:	00 e0       	ldi	r16, 0x00	; 0
     100:	0b bf       	out	0x3b, r16	; 59
     102:	02 c0       	rjmp	.+4      	; 0x108 <__do_copy_data+0x14>
     104:	07 90       	elpm	r0, Z+
     106:	0d 92       	st	X+, r0
     108:	a0 3c       	cpi	r26, 0xC0	; 192
     10a:	b1 07       	cpc	r27, r17
     10c:	d9 f7       	brne	.-10     	; 0x104 <__do_copy_data+0x10>

0000010e <__do_clear_bss>:
     10e:	24 e0       	ldi	r18, 0x04	; 4
     110:	a0 ec       	ldi	r26, 0xC0	; 192
     112:	b4 e0       	ldi	r27, 0x04	; 4
     114:	01 c0       	rjmp	.+2      	; 0x118 <.do_clear_bss_start>

00000116 <.do_clear_bss_loop>:
     116:	1d 92       	st	X+, r1

00000118 <.do_clear_bss_start>:
     118:	a6 3e       	cpi	r26, 0xE6	; 230
     11a:	b2 07       	cpc	r27, r18
     11c:	e1 f7       	brne	.-8      	; 0x116 <.do_clear_bss_loop>
     11e:	75 d4       	rcall	.+2282   	; 0xa0a <main>
     120:	0c 94 e2 08 	jmp	0x11c4	; 0x11c4 <_exit>

00000124 <__bad_interrupt>:
     124:	6d cf       	rjmp	.-294    	; 0x0 <__vectors>

00000126 <delay_piscaled>:


void desativa_buzzer(){
	buzzer = 0;
	TCCR4B = 0x00; //desliga timer 4
	TIMSK4 = 0x00;
     126:	cf 92       	push	r12
     128:	df 92       	push	r13
     12a:	ef 92       	push	r14
     12c:	ff 92       	push	r15
     12e:	c1 2c       	mov	r12, r1
     130:	d1 2c       	mov	r13, r1
     132:	76 01       	movw	r14, r12
     134:	11 c0       	rjmp	.+34     	; 0x158 <delay_piscaled+0x32>
     136:	80 91 c2 04 	lds	r24, 0x04C2	; 0x8004c2 <alarme_ativo>
     13a:	88 23       	and	r24, r24
     13c:	41 f0       	breq	.+16     	; 0x14e <delay_piscaled+0x28>
     13e:	80 91 c1 04 	lds	r24, 0x04C1	; 0x8004c1 <intruso_detectado>
     142:	88 23       	and	r24, r24
     144:	21 f0       	breq	.+8      	; 0x14e <delay_piscaled+0x28>
     146:	f6 d6       	rcall	.+3564   	; 0xf34 <delay_250ms>
     148:	85 b1       	in	r24, 0x05	; 5
     14a:	80 58       	subi	r24, 0x80	; 128
     14c:	85 b9       	out	0x05, r24	; 5
     14e:	8f ef       	ldi	r24, 0xFF	; 255
     150:	c8 1a       	sub	r12, r24
     152:	d8 0a       	sbc	r13, r24
     154:	e8 0a       	sbc	r14, r24
     156:	f8 0a       	sbc	r15, r24
     158:	80 91 00 02 	lds	r24, 0x0200	; 0x800200 <__DATA_REGION_ORIGIN__>
     15c:	90 91 01 02 	lds	r25, 0x0201	; 0x800201 <__DATA_REGION_ORIGIN__+0x1>
     160:	a0 91 02 02 	lds	r26, 0x0202	; 0x800202 <__DATA_REGION_ORIGIN__+0x2>
     164:	b0 91 03 02 	lds	r27, 0x0203	; 0x800203 <__DATA_REGION_ORIGIN__+0x3>
     168:	88 0f       	add	r24, r24
     16a:	99 1f       	adc	r25, r25
     16c:	aa 1f       	adc	r26, r26
     16e:	bb 1f       	adc	r27, r27
     170:	88 0f       	add	r24, r24
     172:	99 1f       	adc	r25, r25
     174:	aa 1f       	adc	r26, r26
     176:	bb 1f       	adc	r27, r27
     178:	c8 16       	cp	r12, r24
     17a:	d9 06       	cpc	r13, r25
     17c:	ea 06       	cpc	r14, r26
     17e:	fb 06       	cpc	r15, r27
     180:	d4 f2       	brlt	.-76     	; 0x136 <delay_piscaled+0x10>
     182:	ff 90       	pop	r15
     184:	ef 90       	pop	r14
     186:	df 90       	pop	r13
     188:	cf 90       	pop	r12
     18a:	08 95       	ret

0000018c <ativa_buzzer>:
     18c:	cf 92       	push	r12
     18e:	df 92       	push	r13
     190:	ef 92       	push	r14
     192:	ff 92       	push	r15
     194:	3a c0       	rjmp	.+116    	; 0x20a <ativa_buzzer+0x7e>
     196:	80 91 c2 04 	lds	r24, 0x04C2	; 0x8004c2 <alarme_ativo>
     19a:	88 23       	and	r24, r24
     19c:	49 f0       	breq	.+18     	; 0x1b0 <ativa_buzzer+0x24>
     19e:	80 91 c1 04 	lds	r24, 0x04C1	; 0x8004c1 <intruso_detectado>
     1a2:	88 23       	and	r24, r24
     1a4:	29 f0       	breq	.+10     	; 0x1b0 <ativa_buzzer+0x24>
     1a6:	b7 d6       	rcall	.+3438   	; 0xf16 <onda_400hz>
     1a8:	95 b1       	in	r25, 0x05	; 5
     1aa:	80 e4       	ldi	r24, 0x40	; 64
     1ac:	89 27       	eor	r24, r25
     1ae:	85 b9       	out	0x05, r24	; 5
     1b0:	8f ef       	ldi	r24, 0xFF	; 255
     1b2:	c8 1a       	sub	r12, r24
     1b4:	d8 0a       	sbc	r13, r24
     1b6:	e8 0a       	sbc	r14, r24
     1b8:	f8 0a       	sbc	r15, r24
     1ba:	03 c0       	rjmp	.+6      	; 0x1c2 <ativa_buzzer+0x36>
     1bc:	c1 2c       	mov	r12, r1
     1be:	d1 2c       	mov	r13, r1
     1c0:	76 01       	movw	r14, r12
     1c2:	80 e9       	ldi	r24, 0x90	; 144
     1c4:	c8 16       	cp	r12, r24
     1c6:	81 e0       	ldi	r24, 0x01	; 1
     1c8:	d8 06       	cpc	r13, r24
     1ca:	e1 04       	cpc	r14, r1
     1cc:	f1 04       	cpc	r15, r1
     1ce:	1c f3       	brlt	.-58     	; 0x196 <ativa_buzzer+0xa>
     1d0:	c1 2c       	mov	r12, r1
     1d2:	d1 2c       	mov	r13, r1
     1d4:	76 01       	movw	r14, r12
     1d6:	12 c0       	rjmp	.+36     	; 0x1fc <ativa_buzzer+0x70>
     1d8:	80 91 c2 04 	lds	r24, 0x04C2	; 0x8004c2 <alarme_ativo>
     1dc:	88 23       	and	r24, r24
     1de:	49 f0       	breq	.+18     	; 0x1f2 <ativa_buzzer+0x66>
     1e0:	80 91 c1 04 	lds	r24, 0x04C1	; 0x8004c1 <intruso_detectado>
     1e4:	88 23       	and	r24, r24
     1e6:	29 f0       	breq	.+10     	; 0x1f2 <ativa_buzzer+0x66>
     1e8:	87 d6       	rcall	.+3342   	; 0xef8 <onda_800hz>
     1ea:	95 b1       	in	r25, 0x05	; 5
     1ec:	80 e4       	ldi	r24, 0x40	; 64
     1ee:	89 27       	eor	r24, r25
     1f0:	85 b9       	out	0x05, r24	; 5
     1f2:	8f ef       	ldi	r24, 0xFF	; 255
     1f4:	c8 1a       	sub	r12, r24
     1f6:	d8 0a       	sbc	r13, r24
     1f8:	e8 0a       	sbc	r14, r24
     1fa:	f8 0a       	sbc	r15, r24
     1fc:	80 e2       	ldi	r24, 0x20	; 32
     1fe:	c8 16       	cp	r12, r24
     200:	83 e0       	ldi	r24, 0x03	; 3
     202:	d8 06       	cpc	r13, r24
     204:	e1 04       	cpc	r14, r1
     206:	f1 04       	cpc	r15, r1
     208:	3c f3       	brlt	.-50     	; 0x1d8 <ativa_buzzer+0x4c>
     20a:	80 91 c2 04 	lds	r24, 0x04C2	; 0x8004c2 <alarme_ativo>
     20e:	88 23       	and	r24, r24
     210:	21 f0       	breq	.+8      	; 0x21a <ativa_buzzer+0x8e>
     212:	80 91 c1 04 	lds	r24, 0x04C1	; 0x8004c1 <intruso_detectado>
     216:	81 11       	cpse	r24, r1
     218:	d1 cf       	rjmp	.-94     	; 0x1bc <ativa_buzzer+0x30>
     21a:	15 b8       	out	0x05, r1	; 5
     21c:	ff 90       	pop	r15
     21e:	ef 90       	pop	r14
     220:	df 90       	pop	r13
     222:	cf 90       	pop	r12
     224:	08 95       	ret

00000226 <enviaMotivo>:
}

void enviaMotivo(){
	send_string("CAUSA: SINAL ");// mostra o motivo do sinal
     226:	80 e6       	ldi	r24, 0x60	; 96
     228:	92 e0       	ldi	r25, 0x02	; 2
     22a:	96 d2       	rcall	.+1324   	; 0x758 <send_string>
	send_string(&sensorAtivo);
     22c:	82 ee       	ldi	r24, 0xE2	; 226
     22e:	94 e0       	ldi	r25, 0x04	; 4
	proxima_linha();
     230:	93 d2       	rcall	.+1318   	; 0x758 <send_string>
     232:	b8 d2       	rcall	.+1392   	; 0x7a4 <proxima_linha>
	printa_horarioreal(horarioSensor[0], horarioSensor[1], horarioSensor[2]);//mostra o horário em que o sensor foi ativado
     234:	ea ed       	ldi	r30, 0xDA	; 218
     236:	f4 e0       	ldi	r31, 0x04	; 4
     238:	44 81       	ldd	r20, Z+4	; 0x04
     23a:	55 81       	ldd	r21, Z+5	; 0x05
     23c:	62 81       	ldd	r22, Z+2	; 0x02
     23e:	73 81       	ldd	r23, Z+3	; 0x03
     240:	80 81       	ld	r24, Z
	delay_1s();
     242:	91 81       	ldd	r25, Z+1	; 0x01
	delay_1s();
     244:	cc d2       	rcall	.+1432   	; 0x7de <printa_horarioreal>
     246:	96 d6       	rcall	.+3372   	; 0xf74 <delay_1s>
	delay_1s();
     248:	95 d6       	rcall	.+3370   	; 0xf74 <delay_1s>
     24a:	94 d6       	rcall	.+3368   	; 0xf74 <delay_1s>
	telaMotivoAlarme();
     24c:	c3 d2       	rcall	.+1414   	; 0x7d4 <telaMotivoAlarme>
	delay_1s();
     24e:	92 d6       	rcall	.+3364   	; 0xf74 <delay_1s>
	delay_1s();
     250:	91 d6       	rcall	.+3362   	; 0xf74 <delay_1s>
     252:	10 92 c5 04 	sts	0x04C5, r1	; 0x8004c5 <instrucaoDigitada>
	instrucaoDigitada = '\0';
     256:	81 e0       	ldi	r24, 0x01	; 1
	PCMSK2 = 0x01;//desligar interrupção das teclas dos números 
     258:	80 93 6d 00 	sts	0x006D, r24	; 0x80006d <__TEXT_REGION_LENGTH__+0x7c006d>
	telaSelecionarMotivoAlarme();
     25c:	a9 d2       	rcall	.+1362   	; 0x7b0 <telaSelecionarMotivoAlarme>
	while(1)
	{
		instrucaoDigitada = procuraTecla();
     25e:	07 d2       	rcall	.+1038   	; 0x66e <procuraTecla>
     260:	80 93 c5 04 	sts	0x04C5, r24	; 0x8004c5 <instrucaoDigitada>
		if(instrucaoDigitada == '*')//opção alarme falso
     264:	8a 32       	cpi	r24, 0x2A	; 42
     266:	49 f4       	brne	.+18     	; 0x27a <enviaMotivo+0x54>
		{
			enviarStringSerial("AMA");//enviar alarme falso e que os sensores não foram ativados 
     268:	8e e6       	ldi	r24, 0x6E	; 110
     26a:	92 e0       	ldi	r25, 0x02	; 2
			enviarStringSerial("AS");
     26c:	51 d0       	rcall	.+162    	; 0x310 <enviarStringSerial>
     26e:	8d ed       	ldi	r24, 0xDD	; 221
     270:	92 e0       	ldi	r25, 0x02	; 2
     272:	4e d0       	rcall	.+156    	; 0x310 <enviarStringSerial>
			enviarByteSerial(0b0);
     274:	80 e0       	ldi	r24, 0x00	; 0
     276:	3d d0       	rcall	.+122    	; 0x2f2 <enviarByteSerial>
			break;
     278:	13 c0       	rjmp	.+38     	; 0x2a0 <enviaMotivo+0x7a>
		}
		if(instrucaoDigitada == '#')//mais opções
     27a:	83 32       	cpi	r24, 0x23	; 35
     27c:	81 f7       	brne	.-32     	; 0x25e <enviaMotivo+0x38>
		{
			instrucaoDigitada = '\0';
     27e:	10 92 c5 04 	sts	0x04C5, r1	; 0x8004c5 <instrucaoDigitada>
			telaOpcaoIntrusoOuInvadido();
			while(1)
			{
				instrucaoDigitada = procuraTecla();
     282:	9f d2       	rcall	.+1342   	; 0x7c2 <telaOpcaoIntrusoOuInvadido>
     284:	f4 d1       	rcall	.+1000   	; 0x66e <procuraTecla>
     286:	80 93 c5 04 	sts	0x04C5, r24	; 0x8004c5 <instrucaoDigitada>
				if(instrucaoDigitada == '*')//opção intruso no local
     28a:	8a 32       	cpi	r24, 0x2A	; 42
     28c:	21 f4       	brne	.+8      	; 0x296 <enviaMotivo+0x70>
				{
					enviarStringSerial("AMI");
     28e:	82 e7       	ldi	r24, 0x72	; 114
     290:	92 e0       	ldi	r25, 0x02	; 2
     292:	3e d0       	rcall	.+124    	; 0x310 <enviarStringSerial>
     294:	05 c0       	rjmp	.+10     	; 0x2a0 <enviaMotivo+0x7a>
					break;
     296:	83 32       	cpi	r24, 0x23	; 35
				}
				if(instrucaoDigitada == '#')//opçao constatação de invasão
     298:	a9 f7       	brne	.-22     	; 0x284 <enviaMotivo+0x5e>
     29a:	86 e7       	ldi	r24, 0x76	; 118
				{
					enviarStringSerial("AMC");
     29c:	92 e0       	ldi	r25, 0x02	; 2
     29e:	38 d0       	rcall	.+112    	; 0x310 <enviarStringSerial>
     2a0:	56 d3       	rcall	.+1708   	; 0x94e <telaInicio>
     2a2:	8f e0       	ldi	r24, 0x0F	; 15
				}
			}
			break;
		}
	}
		telaInicio();
     2a4:	80 93 6d 00 	sts	0x006D, r24	; 0x80006d <__TEXT_REGION_LENGTH__+0x7c006d>
	PCMSK2 = 0x0F;//ligar interrupção de todas as teclas
     2a8:	08 95       	ret

000002aa <ativarSerialInterrupt>:
#define F_CPU 16000000


void ativarSerialInterrupt()
{
	UCSR0B |= (1 << RXCIE0);// Ativa o interrupt
     2aa:	e1 ec       	ldi	r30, 0xC1	; 193
     2ac:	f0 e0       	ldi	r31, 0x00	; 0
     2ae:	80 81       	ld	r24, Z
     2b0:	80 68       	ori	r24, 0x80	; 128
     2b2:	80 83       	st	Z, r24
     2b4:	08 95       	ret

000002b6 <desativarSerialInterrupt>:
}

void desativarSerialInterrupt()
{
	UCSR0B &= ~(1 << RXCIE0);// Desativa o interrupt
     2b6:	e1 ec       	ldi	r30, 0xC1	; 193
     2b8:	f0 e0       	ldi	r31, 0x00	; 0
     2ba:	80 81       	ld	r24, Z
     2bc:	8f 77       	andi	r24, 0x7F	; 127
     2be:	80 83       	st	Z, r24
     2c0:	08 95       	ret

000002c2 <inicializarSerial>:
}

void inicializarSerial()
{	
	UBRR0 = (F_CPU)/(16 * BAUD_RATE) - 1;//Baud Rate.
     2c2:	83 e3       	ldi	r24, 0x33	; 51
     2c4:	90 e0       	ldi	r25, 0x00	; 0
     2c6:	90 93 c5 00 	sts	0x00C5, r25	; 0x8000c5 <__TEXT_REGION_LENGTH__+0x7c00c5>
     2ca:	80 93 c4 00 	sts	0x00C4, r24	; 0x8000c4 <__TEXT_REGION_LENGTH__+0x7c00c4>
	
	UCSR0B |= (1 << RXEN0) | (1 << TXEN0);// Ativa recebimento e transmissão.
     2ce:	e1 ec       	ldi	r30, 0xC1	; 193
     2d0:	f0 e0       	ldi	r31, 0x00	; 0
     2d2:	80 81       	ld	r24, Z
     2d4:	88 61       	ori	r24, 0x18	; 24
     2d6:	80 83       	st	Z, r24
	
	UCSR0C = (0b011 << UCSZ00);//frame de 8 bits.
     2d8:	86 e0       	ldi	r24, 0x06	; 6
     2da:	80 93 c2 00 	sts	0x00C2, r24	; 0x8000c2 <__TEXT_REGION_LENGTH__+0x7c00c2>
	
	ativarSerialInterrupt();
     2de:	e5 cf       	rjmp	.-54     	; 0x2aa <ativarSerialInterrupt>
     2e0:	08 95       	ret

000002e2 <byteDisponivelEnvio>:
}

uint8_t byteDisponivelEnvio() {
	
	return UCSR0A & (1 << UDRE0);
     2e2:	80 91 c0 00 	lds	r24, 0x00C0	; 0x8000c0 <__TEXT_REGION_LENGTH__+0x7c00c0>
}
     2e6:	80 72       	andi	r24, 0x20	; 32
     2e8:	08 95       	ret

000002ea <byteRecebidoSerial>:

uint8_t byteRecebidoSerial() {
	
	return UCSR0A & (1 << RXC0);
     2ea:	80 91 c0 00 	lds	r24, 0x00C0	; 0x8000c0 <__TEXT_REGION_LENGTH__+0x7c00c0>
}
     2ee:	80 78       	andi	r24, 0x80	; 128
     2f0:	08 95       	ret

000002f2 <enviarByteSerial>:

void enviarByteSerial(uint8_t byte) {
     2f2:	cf 93       	push	r28
     2f4:	c8 2f       	mov	r28, r24
	
	while (!byteDisponivelEnvio());//espera estar disponível para enviar
     2f6:	f5 df       	rcall	.-22     	; 0x2e2 <byteDisponivelEnvio>
     2f8:	88 23       	and	r24, r24
     2fa:	e9 f3       	breq	.-6      	; 0x2f6 <enviarByteSerial+0x4>
	UDR0 = byte;
     2fc:	c0 93 c6 00 	sts	0x00C6, r28	; 0x8000c6 <__TEXT_REGION_LENGTH__+0x7c00c6>
}
     300:	cf 91       	pop	r28
     302:	08 95       	ret

00000304 <receberByteSerial>:

uint8_t receberByteSerial(void) {
	while (!byteRecebidoSerial());//espera bytes estarem disponíveis para ler
     304:	f2 df       	rcall	.-28     	; 0x2ea <byteRecebidoSerial>
     306:	88 23       	and	r24, r24
     308:	e9 f3       	breq	.-6      	; 0x304 <receberByteSerial>
	return UDR0;
     30a:	80 91 c6 00 	lds	r24, 0x00C6	; 0x8000c6 <__TEXT_REGION_LENGTH__+0x7c00c6>
}
     30e:	08 95       	ret

00000310 <enviarStringSerial>:

void enviarStringSerial(const char *str) {//envia serie de bytes
     310:	0f 93       	push	r16
     312:	1f 93       	push	r17
     314:	cf 93       	push	r28
     316:	8c 01       	movw	r16, r24
	uint8_t i = 0;
     318:	c0 e0       	ldi	r28, 0x00	; 0
	while (str[i] != '\0') {
     31a:	02 c0       	rjmp	.+4      	; 0x320 <enviarStringSerial+0x10>
		enviarByteSerial(str[i]);
     31c:	ea df       	rcall	.-44     	; 0x2f2 <enviarByteSerial>
		i++;
     31e:	cf 5f       	subi	r28, 0xFF	; 255
	return UDR0;
}

void enviarStringSerial(const char *str) {//envia serie de bytes
	uint8_t i = 0;
	while (str[i] != '\0') {
     320:	f8 01       	movw	r30, r16
     322:	ec 0f       	add	r30, r28
     324:	f1 1d       	adc	r31, r1
     326:	80 81       	ld	r24, Z
     328:	81 11       	cpse	r24, r1
     32a:	f8 cf       	rjmp	.-16     	; 0x31c <enviarStringSerial+0xc>
		enviarByteSerial(str[i]);
		i++;
	}
     32c:	cf 91       	pop	r28
     32e:	1f 91       	pop	r17
     330:	0f 91       	pop	r16
     332:	08 95       	ret

00000334 <escreveNumero>:
char novaSenha[6]= {"11111"};
char confereNovaSenha[6]= {"11111"};
int pediHorario = 0;
	

void escreveNumero(uint8_t valor){//converte numeros inteiros em seus respectivos códigos compatíveis com o LCD para printa-los na tela
     334:	0f 93       	push	r16
     336:	1f 93       	push	r17
     338:	cf 93       	push	r28
     33a:	c8 2f       	mov	r28, r24
	if(valor>9)
     33c:	8a 30       	cpi	r24, 0x0A	; 10
     33e:	b0 f0       	brcs	.+44     	; 0x36c <escreveNumero+0x38>
	{
		int segundoNum;
		int primeiroNum = valor/10;
     340:	8d ec       	ldi	r24, 0xCD	; 205
     342:	c8 9f       	mul	r28, r24
     344:	81 2d       	mov	r24, r1
     346:	11 24       	eor	r1, r1
     348:	86 95       	lsr	r24
     34a:	86 95       	lsr	r24
     34c:	86 95       	lsr	r24
     34e:	08 2f       	mov	r16, r24
     350:	10 e0       	ldi	r17, 0x00	; 0
		send_data(primeiroNum+0b110000);
     352:	80 5d       	subi	r24, 0xD0	; 208
     354:	cf d1       	rcall	.+926    	; 0x6f4 <send_data>
		segundoNum = valor-primeiroNum*10;
     356:	26 ef       	ldi	r18, 0xF6	; 246
     358:	20 03       	mulsu	r18, r16
     35a:	c0 01       	movw	r24, r0
     35c:	21 9f       	mul	r18, r17
     35e:	90 0d       	add	r25, r0
     360:	11 24       	eor	r1, r1
     362:	8c 0f       	add	r24, r28
     364:	91 1d       	adc	r25, r1
		send_data(segundoNum+0b110000);
     366:	80 5d       	subi	r24, 0xD0	; 208
     368:	c5 d1       	rcall	.+906    	; 0x6f4 <send_data>
     36a:	05 c0       	rjmp	.+10     	; 0x376 <escreveNumero+0x42>
	}else{
		send_data(0b110000);
     36c:	80 e3       	ldi	r24, 0x30	; 48
     36e:	c2 d1       	rcall	.+900    	; 0x6f4 <send_data>
		send_data(valor+0b110000);
     370:	80 e3       	ldi	r24, 0x30	; 48
     372:	8c 0f       	add	r24, r28
     374:	bf d1       	rcall	.+894    	; 0x6f4 <send_data>
     376:	cf 91       	pop	r28
	}
}	
     378:	1f 91       	pop	r17
     37a:	0f 91       	pop	r16
     37c:	08 95       	ret

0000037e <subRotinaAdm>:
     37e:	cf 93       	push	r28


void subRotinaAdm()
{
	
	telaSenhasOuMais();// tela troca senhas ou mais opcoes
     380:	48 d2       	rcall	.+1168   	; 0x812 <telaSenhasOuMais>
	sair = 0;
     382:	10 92 10 02 	sts	0x0210, r1	; 0x800210 <sair>
	PCMSK2 = 0x01;//desliga interrupção dos pinos 
     386:	81 e0       	ldi	r24, 0x01	; 1
     388:	80 93 6d 00 	sts	0x006D, r24	; 0x80006d <__TEXT_REGION_LENGTH__+0x7c006d>
	
	while(!sair)
	{
		instrucaoDigitada = procuraTecla();
     38c:	f2 c0       	rjmp	.+484    	; 0x572 <__LOCK_REGION_LENGTH__+0x172>
     38e:	6f d1       	rcall	.+734    	; 0x66e <procuraTecla>
     390:	80 93 c5 04 	sts	0x04C5, r24	; 0x8004c5 <instrucaoDigitada>
		
		if(instrucaoDigitada == '*')//opção trocar ou resetar senha de usuários
     394:	8a 32       	cpi	r24, 0x2A	; 42
     396:	09 f0       	breq	.+2      	; 0x39a <subRotinaAdm+0x1c>
		{
			telaResetSenhas();
     398:	88 c0       	rjmp	.+272    	; 0x4aa <__LOCK_REGION_LENGTH__+0xaa>
			instrucaoDigitada = '\0';
     39a:	a0 d2       	rcall	.+1344   	; 0x8dc <telaResetSenhas>
     39c:	10 92 c5 04 	sts	0x04C5, r1	; 0x8004c5 <instrucaoDigitada>
			while(1)
			{
				instrucaoDigitada = procuraTecla();
     3a0:	66 d1       	rcall	.+716    	; 0x66e <procuraTecla>
     3a2:	80 93 c5 04 	sts	0x04C5, r24	; 0x8004c5 <instrucaoDigitada>
				if(instrucaoDigitada == '*')// resetar as senhas para o padrao de fabrica
				{
					telaResetarSenhas();
     3a6:	8a 32       	cpi	r24, 0x2A	; 42
     3a8:	f1 f4       	brne	.+60     	; 0x3e6 <subRotinaAdm+0x68>
					instrucaoDigitada = '\0';
     3aa:	a1 d2       	rcall	.+1346   	; 0x8ee <telaResetarSenhas>
     3ac:	10 92 c5 04 	sts	0x04C5, r1	; 0x8004c5 <instrucaoDigitada>
					while(1)
					{
						instrucaoDigitada = procuraTecla();
     3b0:	5e d1       	rcall	.+700    	; 0x66e <procuraTecla>
     3b2:	80 93 c5 04 	sts	0x04C5, r24	; 0x8004c5 <instrucaoDigitada>
						if (instrucaoDigitada == '*')
     3b6:	8a 32       	cpi	r24, 0x2A	; 42
						{
							strcpy(senhas.usuario1, senhas.usuario1Default);
     3b8:	81 f4       	brne	.+32     	; 0x3da <subRotinaAdm+0x5c>
     3ba:	68 e4       	ldi	r22, 0x48	; 72
     3bc:	72 e0       	ldi	r23, 0x02	; 2
     3be:	8a e2       	ldi	r24, 0x2A	; 42
     3c0:	92 e0       	ldi	r25, 0x02	; 2
							strcpy(senhas.usuario2, senhas.usuario2Default);
     3c2:	f9 d6       	rcall	.+3570   	; 0x11b6 <strcpy>
     3c4:	6e e4       	ldi	r22, 0x4E	; 78
     3c6:	72 e0       	ldi	r23, 0x02	; 2
     3c8:	80 e3       	ldi	r24, 0x30	; 48
     3ca:	92 e0       	ldi	r25, 0x02	; 2
							strcpy(senhas.adm, senhas.admDefault);
     3cc:	f4 d6       	rcall	.+3560   	; 0x11b6 <strcpy>
     3ce:	64 e5       	ldi	r22, 0x54	; 84
     3d0:	72 e0       	ldi	r23, 0x02	; 2
     3d2:	86 e3       	ldi	r24, 0x36	; 54
     3d4:	92 e0       	ldi	r25, 0x02	; 2
							break;
     3d6:	ef d6       	rcall	.+3550   	; 0x11b6 <strcpy>
						}
						if (instrucaoDigitada == '#')
     3d8:	02 c0       	rjmp	.+4      	; 0x3de <subRotinaAdm+0x60>
						{
							break;
						}
					}
					telaSenhasOuMais();//após ação, printa novamente a primeira tela para voltar para as opções de ações do ADM
     3da:	83 32       	cpi	r24, 0x23	; 35
     3dc:	49 f7       	brne	.-46     	; 0x3b0 <subRotinaAdm+0x32>
					instrucaoDigitada = '\0';
     3de:	19 d2       	rcall	.+1074   	; 0x812 <telaSenhasOuMais>
					break;//sai desse while entre no while(!sair)
     3e0:	10 92 c5 04 	sts	0x04C5, r1	; 0x8004c5 <instrucaoDigitada>
					
				}else if(instrucaoDigitada == '#')//opção troca das senhas
     3e4:	c6 c0       	rjmp	.+396    	; 0x572 <__LOCK_REGION_LENGTH__+0x172>
				{
					telaTrocaSenhas();
     3e6:	83 32       	cpi	r24, 0x23	; 35
     3e8:	d9 f6       	brne	.-74     	; 0x3a0 <subRotinaAdm+0x22>
					instrucaoDigitada = '\0';
     3ea:	4a d2       	rcall	.+1172   	; 0x880 <telaTrocaSenhas>
     3ec:	10 92 c5 04 	sts	0x04C5, r1	; 0x8004c5 <instrucaoDigitada>
					while(1)
					{
						instrucaoDigitada = procuraTecla();
     3f0:	3e d1       	rcall	.+636    	; 0x66e <procuraTecla>
     3f2:	80 93 c5 04 	sts	0x04C5, r24	; 0x8004c5 <instrucaoDigitada>
						if(instrucaoDigitada == '1' || instrucaoDigitada == '2' || instrucaoDigitada == '*')
     3f6:	9f ec       	ldi	r25, 0xCF	; 207
     3f8:	98 0f       	add	r25, r24
     3fa:	92 30       	cpi	r25, 0x02	; 2
						{
							senhaConferida = 0;
     3fc:	10 f0       	brcs	.+4      	; 0x402 <__LOCK_REGION_LENGTH__+0x2>
     3fe:	8a 32       	cpi	r24, 0x2A	; 42
							while(!senhaConferida)
     400:	b9 f7       	brne	.-18     	; 0x3f0 <subRotinaAdm+0x72>
							{
								
								telaNovaSenha();
     402:	10 92 c3 04 	sts	0x04C3, r1	; 0x8004c3 <senhaConferida>
								
								strcpy(novaSenha,subRotinaTrocaSenha());
     406:	23 c0       	rjmp	.+70     	; 0x44e <__LOCK_REGION_LENGTH__+0x4e>
     408:	84 d2       	rcall	.+1288   	; 0x912 <telaNovaSenha>
     40a:	e5 d5       	rcall	.+3018   	; 0xfd6 <subRotinaTrocaSenha>
     40c:	bc 01       	movw	r22, r24
								
								if(strcmp(novaSenha,"INVAL"))// se senha == INVAL, a senha digitada ja é usada no sistema, então fazemos o usuário repetir  ação
     40e:	8a e0       	ldi	r24, 0x0A	; 10
     410:	92 e0       	ldi	r25, 0x02	; 2
     412:	d1 d6       	rcall	.+3490   	; 0x11b6 <strcpy>
     414:	6a e7       	ldi	r22, 0x7A	; 122
     416:	72 e0       	ldi	r23, 0x02	; 2
     418:	8a e0       	ldi	r24, 0x0A	; 10
     41a:	92 e0       	ldi	r25, 0x02	; 2
								{
									telaConfirmaSenha();
     41c:	c3 d6       	rcall	.+3462   	; 0x11a4 <strcmp>
     41e:	89 2b       	or	r24, r25
									
									strcpy(confereNovaSenha,subRotinaTrocaSenha());
     420:	a1 f0       	breq	.+40     	; 0x44a <__LOCK_REGION_LENGTH__+0x4a>
     422:	7d d2       	rcall	.+1274   	; 0x91e <telaConfirmaSenha>
     424:	d8 d5       	rcall	.+2992   	; 0xfd6 <subRotinaTrocaSenha>
     426:	bc 01       	movw	r22, r24
									
									if(!strcmp(novaSenha,confereNovaSenha))// se a primeira senha é valida, pedimos para o usuário a confirme, se não ele tera que repetir tudo novamente.
     428:	84 e0       	ldi	r24, 0x04	; 4
     42a:	92 e0       	ldi	r25, 0x02	; 2
     42c:	c4 d6       	rcall	.+3464   	; 0x11b6 <strcpy>
     42e:	64 e0       	ldi	r22, 0x04	; 4
     430:	72 e0       	ldi	r23, 0x02	; 2
     432:	8a e0       	ldi	r24, 0x0A	; 10
     434:	92 e0       	ldi	r25, 0x02	; 2
     436:	b6 d6       	rcall	.+3436   	; 0x11a4 <strcmp>
									{
										senhaConferida = 1;
     438:	89 2b       	or	r24, r25
     43a:	21 f4       	brne	.+8      	; 0x444 <__LOCK_REGION_LENGTH__+0x44>
     43c:	81 e0       	ldi	r24, 0x01	; 1
										}else{
										
										telaSenhasDivergentes();
     43e:	80 93 c3 04 	sts	0x04C3, r24	; 0x8004c3 <senhaConferida>
										delay_1s();
     442:	05 c0       	rjmp	.+10     	; 0x44e <__LOCK_REGION_LENGTH__+0x4e>
     444:	5d d2       	rcall	.+1210   	; 0x900 <telaSenhasDivergentes>
     446:	96 d5       	rcall	.+2860   	; 0xf74 <delay_1s>
									}
								}else{
									telaSenhaInvalida();
     448:	02 c0       	rjmp	.+4      	; 0x44e <__LOCK_REGION_LENGTH__+0x4e>
									delay_1s();
     44a:	15 d2       	rcall	.+1066   	; 0x876 <telaSenhaInvalida>
     44c:	93 d5       	rcall	.+2854   	; 0xf74 <delay_1s>
					{
						instrucaoDigitada = procuraTecla();
						if(instrucaoDigitada == '1' || instrucaoDigitada == '2' || instrucaoDigitada == '*')
						{
							senhaConferida = 0;
							while(!senhaConferida)
     44e:	80 91 c3 04 	lds	r24, 0x04C3	; 0x8004c3 <senhaConferida>
     452:	88 23       	and	r24, r24
     454:	c9 f2       	breq	.-78     	; 0x408 <__LOCK_REGION_LENGTH__+0x8>
								}
								
							}
							
							
							if(instrucaoDigitada == '1')//usuario 1
     456:	c0 91 c5 04 	lds	r28, 0x04C5	; 0x8004c5 <instrucaoDigitada>
     45a:	c1 33       	cpi	r28, 0x31	; 49
							{
								strcpy(senhas.usuario1, novaSenha);
     45c:	29 f4       	brne	.+10     	; 0x468 <__LOCK_REGION_LENGTH__+0x68>
     45e:	6a e0       	ldi	r22, 0x0A	; 10
     460:	72 e0       	ldi	r23, 0x02	; 2
     462:	8a e2       	ldi	r24, 0x2A	; 42
     464:	92 e0       	ldi	r25, 0x02	; 2
     466:	a7 d6       	rcall	.+3406   	; 0x11b6 <strcpy>
							}
							if(instrucaoDigitada == '2')//usuario 2
     468:	c2 33       	cpi	r28, 0x32	; 50
     46a:	29 f4       	brne	.+10     	; 0x476 <__LOCK_REGION_LENGTH__+0x76>
							{
								strcpy(senhas.usuario2, novaSenha);
     46c:	6a e0       	ldi	r22, 0x0A	; 10
     46e:	72 e0       	ldi	r23, 0x02	; 2
     470:	80 e3       	ldi	r24, 0x30	; 48
     472:	92 e0       	ldi	r25, 0x02	; 2
     474:	a0 d6       	rcall	.+3392   	; 0x11b6 <strcpy>
							}
							if(instrucaoDigitada == '*')//usuario adm
     476:	ca 32       	cpi	r28, 0x2A	; 42
     478:	29 f4       	brne	.+10     	; 0x484 <__LOCK_REGION_LENGTH__+0x84>
							{
								strcpy(senhas.adm, novaSenha);
     47a:	6a e0       	ldi	r22, 0x0A	; 10
     47c:	72 e0       	ldi	r23, 0x02	; 2
     47e:	86 e3       	ldi	r24, 0x36	; 54
     480:	92 e0       	ldi	r25, 0x02	; 2
     482:	99 d6       	rcall	.+3378   	; 0x11b6 <strcpy>
	}
}	


void subRotinaAdm()
{
     484:	80 e0       	ldi	r24, 0x00	; 0
     486:	90 e0       	ldi	r25, 0x00	; 0
							if(instrucaoDigitada == '*')//usuario adm
							{
								strcpy(senhas.adm, novaSenha);
							}
							for (int i = 0; i < 5; i++) {
								senha[i] = '\0';
     488:	05 c0       	rjmp	.+10     	; 0x494 <__LOCK_REGION_LENGTH__+0x94>
     48a:	fc 01       	movw	r30, r24
     48c:	ef 52       	subi	r30, 0x2F	; 47
							}
							if(instrucaoDigitada == '*')//usuario adm
							{
								strcpy(senhas.adm, novaSenha);
							}
							for (int i = 0; i < 5; i++) {
     48e:	fb 4f       	sbci	r31, 0xFB	; 251
     490:	10 82       	st	Z, r1
     492:	01 96       	adiw	r24, 0x01	; 1
								senha[i] = '\0';
							}
							nr_digitados = 0;
     494:	85 30       	cpi	r24, 0x05	; 5
     496:	91 05       	cpc	r25, r1
     498:	c4 f3       	brlt	.-16     	; 0x48a <__LOCK_REGION_LENGTH__+0x8a>
     49a:	10 92 d8 04 	sts	0x04D8, r1	; 0x8004d8 <nr_digitados+0x1>
							break;
						}
					}
					telaSenhasOuMais();//após ação, printa novamente a primeira tela para voltar para as opções de ações do ADM
     49e:	10 92 d7 04 	sts	0x04D7, r1	; 0x8004d7 <nr_digitados>
					instrucaoDigitada = '\0';
     4a2:	b7 d1       	rcall	.+878    	; 0x812 <telaSenhasOuMais>
					break;//sai desse while entre no while(!sair)
     4a4:	10 92 c5 04 	sts	0x04C5, r1	; 0x8004c5 <instrucaoDigitada>
				}
				
			}
		}else if(instrucaoDigitada == '#')//mais opcoes
     4a8:	64 c0       	rjmp	.+200    	; 0x572 <__LOCK_REGION_LENGTH__+0x172>
     4aa:	83 32       	cpi	r24, 0x23	; 35
		{
			telaEstadosOuMais();//status usuario e mais opcoes
     4ac:	09 f0       	breq	.+2      	; 0x4b0 <__LOCK_REGION_LENGTH__+0xb0>
     4ae:	61 c0       	rjmp	.+194    	; 0x572 <__LOCK_REGION_LENGTH__+0x172>
			instrucaoDigitada = '\0';
     4b0:	b9 d1       	rcall	.+882    	; 0x824 <telaEstadosOuMais>
     4b2:	10 92 c5 04 	sts	0x04C5, r1	; 0x8004c5 <instrucaoDigitada>
			while(1)
			{
				instrucaoDigitada = procuraTecla();
     4b6:	db d0       	rcall	.+438    	; 0x66e <procuraTecla>
     4b8:	80 93 c5 04 	sts	0x04C5, r24	; 0x8004c5 <instrucaoDigitada>
				if( instrucaoDigitada == '*')//opcao mudar status usuários
     4bc:	8a 32       	cpi	r24, 0x2A	; 42
				{
					telaDeStatusUsuario();
     4be:	e9 f4       	brne	.+58     	; 0x4fa <__LOCK_REGION_LENGTH__+0xfa>
     4c0:	e8 d1       	rcall	.+976    	; 0x892 <telaDeStatusUsuario>
					instrucaoDigitada = '\0';
     4c2:	10 92 c5 04 	sts	0x04C5, r1	; 0x8004c5 <instrucaoDigitada>
					while(1)
					{
						instrucaoDigitada = procuraTecla();
     4c6:	d3 d0       	rcall	.+422    	; 0x66e <procuraTecla>
     4c8:	80 93 c5 04 	sts	0x04C5, r24	; 0x8004c5 <instrucaoDigitada>
						if(instrucaoDigitada == '1')//habilitar/desabilitar usuário 1
     4cc:	81 33       	cpi	r24, 0x31	; 49
						{
							usuario1Status = !usuario1Status;
     4ce:	41 f4       	brne	.+16     	; 0x4e0 <__LOCK_REGION_LENGTH__+0xe0>
     4d0:	81 e0       	ldi	r24, 0x01	; 1
     4d2:	90 91 12 02 	lds	r25, 0x0212	; 0x800212 <usuario1Status>
     4d6:	91 11       	cpse	r25, r1
     4d8:	80 e0       	ldi	r24, 0x00	; 0
     4da:	80 93 12 02 	sts	0x0212, r24	; 0x800212 <usuario1Status>
							break; //sair desse while
						}
						if(instrucaoDigitada == '2')//habilitar/desabilitar usuário 2
     4de:	09 c0       	rjmp	.+18     	; 0x4f2 <__LOCK_REGION_LENGTH__+0xf2>
						{
							usuario2Status = !usuario2Status;
     4e0:	82 33       	cpi	r24, 0x32	; 50
     4e2:	89 f7       	brne	.-30     	; 0x4c6 <__LOCK_REGION_LENGTH__+0xc6>
     4e4:	81 e0       	ldi	r24, 0x01	; 1
     4e6:	90 91 11 02 	lds	r25, 0x0211	; 0x800211 <usuario2Status>
     4ea:	91 11       	cpse	r25, r1
							break; //sair desse while
						}
					}
					
					telaSenhasOuMais();//após ação, printa novamente a primeira tela para voltar para as opções de ações do ADM
     4ec:	80 e0       	ldi	r24, 0x00	; 0
     4ee:	80 93 11 02 	sts	0x0211, r24	; 0x800211 <usuario2Status>
					instrucaoDigitada = '\0';
					break;//sai desse while entre no while(!sair)
					
				}else if(instrucaoDigitada == '#')//mais opcoes
     4f2:	8f d1       	rcall	.+798    	; 0x812 <telaSenhasOuMais>
				{
					telaHorasOuMais();//pedir horário ou mais opcoes
     4f4:	10 92 c5 04 	sts	0x04C5, r1	; 0x8004c5 <instrucaoDigitada>
					instrucaoDigitada = '\0';
     4f8:	3c c0       	rjmp	.+120    	; 0x572 <__LOCK_REGION_LENGTH__+0x172>
					while(1)
					{
						instrucaoDigitada = procuraTecla();
     4fa:	83 32       	cpi	r24, 0x23	; 35
     4fc:	e1 f6       	brne	.-72     	; 0x4b6 <__LOCK_REGION_LENGTH__+0xb6>
     4fe:	9b d1       	rcall	.+822    	; 0x836 <telaHorasOuMais>
						if(instrucaoDigitada == '*')//opção pedir horário
     500:	10 92 c5 04 	sts	0x04C5, r1	; 0x8004c5 <instrucaoDigitada>
						{
							pediHorario = 1;
     504:	b4 d0       	rcall	.+360    	; 0x66e <procuraTecla>
     506:	80 93 c5 04 	sts	0x04C5, r24	; 0x8004c5 <instrucaoDigitada>
     50a:	8a 32       	cpi	r24, 0x2A	; 42
     50c:	b9 f4       	brne	.+46     	; 0x53c <__LOCK_REGION_LENGTH__+0x13c>
     50e:	81 e0       	ldi	r24, 0x01	; 1
							enviarStringSerial("AH");
     510:	90 e0       	ldi	r25, 0x00	; 0
     512:	90 93 c7 04 	sts	0x04C7, r25	; 0x8004c7 <pediHorario+0x1>
     516:	80 93 c6 04 	sts	0x04C6, r24	; 0x8004c6 <pediHorario>
							delay_250ms();
     51a:	80 e8       	ldi	r24, 0x80	; 128
							printa_horarioreal(dia, hora, min);//mostra o horario por um curto tempo
     51c:	92 e0       	ldi	r25, 0x02	; 2
     51e:	f8 de       	rcall	.-528    	; 0x310 <enviarStringSerial>
     520:	09 d5       	rcall	.+2578   	; 0xf34 <delay_250ms>
     522:	40 91 ca 04 	lds	r20, 0x04CA	; 0x8004ca <min>
     526:	50 e0       	ldi	r21, 0x00	; 0
     528:	60 91 cb 04 	lds	r22, 0x04CB	; 0x8004cb <hora>
     52c:	70 e0       	ldi	r23, 0x00	; 0
							delay_1s();
     52e:	80 91 cc 04 	lds	r24, 0x04CC	; 0x8004cc <dia>
							delay_1s();
     532:	90 e0       	ldi	r25, 0x00	; 0
     534:	54 d1       	rcall	.+680    	; 0x7de <printa_horarioreal>
							break;//sair desse while
     536:	1e d5       	rcall	.+2620   	; 0xf74 <delay_1s>
						}else if(instrucaoDigitada == '#')//mais opcoes
     538:	1d d5       	rcall	.+2618   	; 0xf74 <delay_1s>
     53a:	18 c0       	rjmp	.+48     	; 0x56c <__LOCK_REGION_LENGTH__+0x16c>
						{
							telaModNotOuSair();//habilitar ou desabilitar modo noturno ou mais opcoes
     53c:	83 32       	cpi	r24, 0x23	; 35
     53e:	11 f7       	brne	.-60     	; 0x504 <__LOCK_REGION_LENGTH__+0x104>
							instrucaoDigitada = '\0';
     540:	83 d1       	rcall	.+774    	; 0x848 <telaModNotOuSair>
     542:	10 92 c5 04 	sts	0x04C5, r1	; 0x8004c5 <instrucaoDigitada>
							while(1)
							{
								instrucaoDigitada = procuraTecla();
     546:	93 d0       	rcall	.+294    	; 0x66e <procuraTecla>
     548:	80 93 c5 04 	sts	0x04C5, r24	; 0x8004c5 <instrucaoDigitada>
								if(instrucaoDigitada == '*')// muda estado do modo noturno
     54c:	8a 32       	cpi	r24, 0x2A	; 42
     54e:	41 f4       	brne	.+16     	; 0x560 <__LOCK_REGION_LENGTH__+0x160>
								{
									modoNoturnoStatus = !modoNoturnoStatus;
     550:	81 e0       	ldi	r24, 0x01	; 1
     552:	90 91 c4 04 	lds	r25, 0x04C4	; 0x8004c4 <modoNoturnoStatus>
     556:	91 11       	cpse	r25, r1
     558:	80 e0       	ldi	r24, 0x00	; 0
     55a:	80 93 c4 04 	sts	0x04C4, r24	; 0x8004c4 <modoNoturnoStatus>
									break;
     55e:	06 c0       	rjmp	.+12     	; 0x56c <__LOCK_REGION_LENGTH__+0x16c>
								}
								if(instrucaoDigitada == '#')
     560:	83 32       	cpi	r24, 0x23	; 35
     562:	89 f7       	brne	.-30     	; 0x546 <__LOCK_REGION_LENGTH__+0x146>
								{
									sair = 1;//sai da subrotina para o programa principal
     564:	81 e0       	ldi	r24, 0x01	; 1
     566:	80 93 10 02 	sts	0x0210, r24	; 0x800210 <sair>
									limpa_reseta_cursor();
     56a:	02 d1       	rcall	.+516    	; 0x770 <limpa_reseta_cursor>
     56c:	52 d1       	rcall	.+676    	; 0x812 <telaSenhasOuMais>
									break;
								}
							}break;
						}
					}
					telaSenhasOuMais();//após ação, printa novamente a primeira tela para voltar para as opções de ações do ADM
     56e:	10 92 c5 04 	sts	0x04C5, r1	; 0x8004c5 <instrucaoDigitada>
					instrucaoDigitada = '\0';
     572:	80 91 10 02 	lds	r24, 0x0210	; 0x800210 <sair>
	
	telaSenhasOuMais();// tela troca senhas ou mais opcoes
	sair = 0;
	PCMSK2 = 0x01;//desliga interrupção dos pinos 
	
	while(!sair)
     576:	88 23       	and	r24, r24
     578:	09 f4       	brne	.+2      	; 0x57c <__LOCK_REGION_LENGTH__+0x17c>
     57a:	09 cf       	rjmp	.-494    	; 0x38e <subRotinaAdm+0x10>
     57c:	10 92 d8 04 	sts	0x04D8, r1	; 0x8004d8 <nr_digitados+0x1>
					break;//sai desse while entre no while(!sair)
				}
			}
		}
	}
	nr_digitados = 0;
     580:	10 92 d7 04 	sts	0x04D7, r1	; 0x8004d7 <nr_digitados>
     584:	8f e0       	ldi	r24, 0x0F	; 15
     586:	80 93 6d 00 	sts	0x006D, r24	; 0x80006d <__TEXT_REGION_LENGTH__+0x7c006d>
	PCMSK2 = 0x0F; //volta a ter interrupção nos pinos
     58a:	cf 91       	pop	r28
     58c:	08 95       	ret

0000058e <ligaLinhas>:


char ligaLinhas(int bitColuna, int indColuna)//coluna = numero correspondente da coluna
{
	
	PORTK = 0b01111111;//ligamos cada linha individualmete para testar se é a linha pressionada 
     58e:	9f e7       	ldi	r25, 0x7F	; 127
     590:	90 93 08 01 	sts	0x0108, r25	; 0x800108 <__TEXT_REGION_LENGTH__+0x7c0108>

	if ((PINK & (1 << bitColuna)) == 0){
     594:	20 91 06 01 	lds	r18, 0x0106	; 0x800106 <__TEXT_REGION_LENGTH__+0x7c0106>
     598:	30 e0       	ldi	r19, 0x00	; 0
     59a:	08 2e       	mov	r0, r24
     59c:	02 c0       	rjmp	.+4      	; 0x5a2 <ligaLinhas+0x14>
     59e:	35 95       	asr	r19
     5a0:	27 95       	ror	r18
     5a2:	0a 94       	dec	r0
     5a4:	e2 f7       	brpl	.-8      	; 0x59e <ligaLinhas+0x10>
     5a6:	20 fd       	sbrc	r18, 0
     5a8:	05 c0       	rjmp	.+10     	; 0x5b4 <ligaLinhas+0x26>
	return teclado[0][indColuna];}
     5aa:	fb 01       	movw	r30, r22
     5ac:	ed 5e       	subi	r30, 0xED	; 237
     5ae:	fd 4f       	sbci	r31, 0xFD	; 253
     5b0:	80 81       	ld	r24, Z
     5b2:	08 95       	ret

	PORTK = 0b10111111;
     5b4:	9f eb       	ldi	r25, 0xBF	; 191
     5b6:	90 93 08 01 	sts	0x0108, r25	; 0x800108 <__TEXT_REGION_LENGTH__+0x7c0108>

	if ((PINK & (1 << bitColuna)) == 0){
     5ba:	20 91 06 01 	lds	r18, 0x0106	; 0x800106 <__TEXT_REGION_LENGTH__+0x7c0106>
     5be:	30 e0       	ldi	r19, 0x00	; 0
     5c0:	08 2e       	mov	r0, r24
     5c2:	02 c0       	rjmp	.+4      	; 0x5c8 <ligaLinhas+0x3a>
     5c4:	35 95       	asr	r19
     5c6:	27 95       	ror	r18
     5c8:	0a 94       	dec	r0
     5ca:	e2 f7       	brpl	.-8      	; 0x5c4 <ligaLinhas+0x36>
     5cc:	20 fd       	sbrc	r18, 0
     5ce:	05 c0       	rjmp	.+10     	; 0x5da <ligaLinhas+0x4c>
		
	return teclado[1][indColuna];}
     5d0:	fb 01       	movw	r30, r22
     5d2:	ed 5e       	subi	r30, 0xED	; 237
     5d4:	fd 4f       	sbci	r31, 0xFD	; 253
     5d6:	84 81       	ldd	r24, Z+4	; 0x04
     5d8:	08 95       	ret

	PORTK = 0b11011111;
     5da:	9f ed       	ldi	r25, 0xDF	; 223
     5dc:	90 93 08 01 	sts	0x0108, r25	; 0x800108 <__TEXT_REGION_LENGTH__+0x7c0108>

	if ((PINK & (1 << bitColuna)) == 0){
     5e0:	20 91 06 01 	lds	r18, 0x0106	; 0x800106 <__TEXT_REGION_LENGTH__+0x7c0106>
     5e4:	30 e0       	ldi	r19, 0x00	; 0
     5e6:	08 2e       	mov	r0, r24
     5e8:	02 c0       	rjmp	.+4      	; 0x5ee <ligaLinhas+0x60>
     5ea:	35 95       	asr	r19
     5ec:	27 95       	ror	r18
     5ee:	0a 94       	dec	r0
     5f0:	e2 f7       	brpl	.-8      	; 0x5ea <ligaLinhas+0x5c>
     5f2:	20 fd       	sbrc	r18, 0
     5f4:	05 c0       	rjmp	.+10     	; 0x600 <ligaLinhas+0x72>
	return teclado[2][indColuna];}
     5f6:	fb 01       	movw	r30, r22
     5f8:	ed 5e       	subi	r30, 0xED	; 237
     5fa:	fd 4f       	sbci	r31, 0xFD	; 253
     5fc:	80 85       	ldd	r24, Z+8	; 0x08
     5fe:	08 95       	ret

	PORTK = 0b11101111;
     600:	9f ee       	ldi	r25, 0xEF	; 239
     602:	90 93 08 01 	sts	0x0108, r25	; 0x800108 <__TEXT_REGION_LENGTH__+0x7c0108>
	
	if ((PINK & (1 << bitColuna)) == 0){
     606:	20 91 06 01 	lds	r18, 0x0106	; 0x800106 <__TEXT_REGION_LENGTH__+0x7c0106>
     60a:	30 e0       	ldi	r19, 0x00	; 0
     60c:	a9 01       	movw	r20, r18
     60e:	02 c0       	rjmp	.+4      	; 0x614 <ligaLinhas+0x86>
     610:	55 95       	asr	r21
     612:	47 95       	ror	r20
     614:	8a 95       	dec	r24
     616:	e2 f7       	brpl	.-8      	; 0x610 <ligaLinhas+0x82>
     618:	40 fd       	sbrc	r20, 0
     61a:	05 c0       	rjmp	.+10     	; 0x626 <ligaLinhas+0x98>
	return teclado[3][indColuna];}
     61c:	fb 01       	movw	r30, r22
     61e:	ed 5e       	subi	r30, 0xED	; 237
     620:	fd 4f       	sbci	r31, 0xFD	; 253
     622:	84 85       	ldd	r24, Z+12	; 0x0c
     624:	08 95       	ret
	
	return '\0';
     626:	80 e0       	ldi	r24, 0x00	; 0
}
     628:	08 95       	ret

0000062a <procuraLinhas>:

char procuraLinhas(uint8_t coluna)
{
	if(coluna == 0b00000111)//coluna 1
     62a:	87 30       	cpi	r24, 0x07	; 7
     62c:	31 f4       	brne	.+12     	; 0x63a <procuraLinhas+0x10>
	{
		return ligaLinhas(3, 0);
     62e:	60 e0       	ldi	r22, 0x00	; 0
     630:	70 e0       	ldi	r23, 0x00	; 0
     632:	83 e0       	ldi	r24, 0x03	; 3
     634:	90 e0       	ldi	r25, 0x00	; 0
     636:	ab cf       	rjmp	.-170    	; 0x58e <ligaLinhas>
     638:	08 95       	ret
	}
	if(coluna == 0b00001011)//coluna 2
     63a:	8b 30       	cpi	r24, 0x0B	; 11
     63c:	31 f4       	brne	.+12     	; 0x64a <procuraLinhas+0x20>
	{
		return ligaLinhas(2, 1);
     63e:	61 e0       	ldi	r22, 0x01	; 1
     640:	70 e0       	ldi	r23, 0x00	; 0
     642:	82 e0       	ldi	r24, 0x02	; 2
     644:	90 e0       	ldi	r25, 0x00	; 0
     646:	a3 cf       	rjmp	.-186    	; 0x58e <ligaLinhas>
     648:	08 95       	ret
	}
	if(coluna == 0b00001101)//coluna 3
     64a:	8d 30       	cpi	r24, 0x0D	; 13
     64c:	31 f4       	brne	.+12     	; 0x65a <procuraLinhas+0x30>
	{
		return ligaLinhas(1, 2);
     64e:	62 e0       	ldi	r22, 0x02	; 2
     650:	70 e0       	ldi	r23, 0x00	; 0
     652:	81 e0       	ldi	r24, 0x01	; 1
     654:	90 e0       	ldi	r25, 0x00	; 0
     656:	9b cf       	rjmp	.-202    	; 0x58e <ligaLinhas>
     658:	08 95       	ret
	}
	if(coluna == 0b00001110)//coluna 4
     65a:	8e 30       	cpi	r24, 0x0E	; 14
     65c:	31 f4       	brne	.+12     	; 0x66a <procuraLinhas+0x40>
	{
		return ligaLinhas(0, 3);
     65e:	63 e0       	ldi	r22, 0x03	; 3
     660:	70 e0       	ldi	r23, 0x00	; 0
     662:	80 e0       	ldi	r24, 0x00	; 0
     664:	90 e0       	ldi	r25, 0x00	; 0
     666:	93 cf       	rjmp	.-218    	; 0x58e <ligaLinhas>
     668:	08 95       	ret
	}
	return '\0';
     66a:	80 e0       	ldi	r24, 0x00	; 0
}
     66c:	08 95       	ret

0000066e <procuraTecla>:

char procuraTecla()
{
     66e:	cf 93       	push	r28
     670:	df 93       	push	r29
	PORTK = 0b00001111;//pull up do input ativado
     672:	8f e0       	ldi	r24, 0x0F	; 15
     674:	80 93 08 01 	sts	0x0108, r24	; 0x800108 <__TEXT_REGION_LENGTH__+0x7c0108>
	
	while(PINK == 0b00001111);//espera qualquer tecla ser pressionada
     678:	80 91 06 01 	lds	r24, 0x0106	; 0x800106 <__TEXT_REGION_LENGTH__+0x7c0106>
     67c:	8f 30       	cpi	r24, 0x0F	; 15
     67e:	e1 f3       	breq	.-8      	; 0x678 <procuraTecla+0xa>
	
	binColuna = PINK;//guarda estado que ja nos revela a coluna do botão pressionado
     680:	c6 e0       	ldi	r28, 0x06	; 6
     682:	d1 e0       	ldi	r29, 0x01	; 1
     684:	88 81       	ld	r24, Y
     686:	80 93 e4 04 	sts	0x04E4, r24	; 0x8004e4 <binColuna>
	possivelTecla = procuraLinhas(binColuna);
     68a:	cf df       	rcall	.-98     	; 0x62a <procuraLinhas>
     68c:	80 93 d9 04 	sts	0x04D9, r24	; 0x8004d9 <possivelTecla>
	delay_200ms();
     690:	61 d4       	rcall	.+2242   	; 0xf54 <delay_200ms>
     692:	8f e0       	ldi	r24, 0x0F	; 15
	PORTK = 0b00001111; //reseta a porta pra proxima leitura
     694:	80 93 08 01 	sts	0x0108, r24	; 0x800108 <__TEXT_REGION_LENGTH__+0x7c0108>
     698:	88 81       	ld	r24, Y
	binColuna = PINK;
     69a:	80 93 e4 04 	sts	0x04E4, r24	; 0x8004e4 <binColuna>
	if(possivelTecla == procuraLinhas(binColuna)){
     69e:	c5 df       	rcall	.-118    	; 0x62a <procuraLinhas>
     6a0:	90 91 d9 04 	lds	r25, 0x04D9	; 0x8004d9 <possivelTecla>
     6a4:	89 13       	cpse	r24, r25
     6a6:	90 e0       	ldi	r25, 0x00	; 0
		return possivelTecla;
	}else{
		return '\0';
     6a8:	89 2f       	mov	r24, r25
	}
}
     6aa:	df 91       	pop	r29
     6ac:	cf 91       	pop	r28
     6ae:	08 95       	ret

000006b0 <config_delay_timer0_CTC>:
	// Enable: PC6 
	
	void config_delay_timer0_CTC(char tempo){
		
		//Modo CTC
		TCCR0A = 0x02;
     6b0:	92 e0       	ldi	r25, 0x02	; 2
     6b2:	94 bd       	out	0x24, r25	; 36
		
		//numero de clocks desejado
		OCR0A = tempo;
     6b4:	87 bd       	out	0x27, r24	; 39
		
		//flag de interrupção
		TIFR0 = (1<<1); 
     6b6:	95 bb       	out	0x15, r25	; 21
     6b8:	08 95       	ret

000006ba <delay_CTC>:
	}

	void delay_CTC()
	{
		//Começa em 0
		TCNT0 = 0;
     6ba:	16 bc       	out	0x26, r1	; 38
		
		//limpa flag
		TIFR0 = (1<<1);
     6bc:	82 e0       	ldi	r24, 0x02	; 2
     6be:	85 bb       	out	0x15, r24	; 21
		
		 //liga o timer
		 TCCR0B = 0x01;
     6c0:	81 e0       	ldi	r24, 0x01	; 1
     6c2:	85 bd       	out	0x25, r24	; 37
		
		while((TIFR0 & (1<<1)) == 0);
     6c4:	a9 9b       	sbis	0x15, 1	; 21
     6c6:	fe cf       	rjmp	.-4      	; 0x6c4 <delay_CTC+0xa>
		
		//desliga timer
		TCCR0B = 0x00;
     6c8:	15 bc       	out	0x25, r1	; 37
     6ca:	08 95       	ret

000006cc <config_porta_avr>:
	}
	
	void config_porta_avr(){
		
		DDRA = 255; //Porta B irá funcionar como saída do AVR/entrada do Hitachi
     6cc:	8f ef       	ldi	r24, 0xFF	; 255
     6ce:	81 b9       	out	0x01, r24	; 1
		DDRC = 0b11100000;//PC0 e PC1 também serão saída do AVR/entrada do Hitachi
     6d0:	80 ee       	ldi	r24, 0xE0	; 224
     6d2:	87 b9       	out	0x07, r24	; 7
     6d4:	08 95       	ret

000006d6 <trigger_EN>:
		
	}

	void trigger_EN()
	{
		config_delay_timer0_CTC(255);
     6d6:	8f ef       	ldi	r24, 0xFF	; 255
     6d8:	eb df       	rcall	.-42     	; 0x6b0 <config_delay_timer0_CTC>
		
		//coloca HIGH
		PORTC |= (1<<6);
     6da:	88 b1       	in	r24, 0x08	; 8
     6dc:	80 64       	ori	r24, 0x40	; 64
		delay_CTC();
     6de:	88 b9       	out	0x08, r24	; 8
		delay_CTC();
     6e0:	ec df       	rcall	.-40     	; 0x6ba <delay_CTC>
     6e2:	eb df       	rcall	.-42     	; 0x6ba <delay_CTC>
		delay_CTC();
     6e4:	ea df       	rcall	.-44     	; 0x6ba <delay_CTC>
		//coloca LOW
		PORTC &= ~(1<<6);
     6e6:	88 b1       	in	r24, 0x08	; 8
		delay_CTC();
     6e8:	8f 7b       	andi	r24, 0xBF	; 191
     6ea:	88 b9       	out	0x08, r24	; 8
		delay_CTC();
     6ec:	e6 df       	rcall	.-52     	; 0x6ba <delay_CTC>
     6ee:	e5 df       	rcall	.-54     	; 0x6ba <delay_CTC>
		delay_CTC();
     6f0:	e4 cf       	rjmp	.-56     	; 0x6ba <delay_CTC>
     6f2:	08 95       	ret

000006f4 <send_data>:
     6f4:	cf 93       	push	r28
	}

	void send_data(char _data_)
	{
     6f6:	c8 2f       	mov	r28, r24
		config_delay_timer0_CTC(255);
     6f8:	8f ef       	ldi	r24, 0xFF	; 255
     6fa:	da df       	rcall	.-76     	; 0x6b0 <config_delay_timer0_CTC>
		
		//RS = dados
		PORTC |= (1<<7);
     6fc:	88 b1       	in	r24, 0x08	; 8
     6fe:	80 68       	ori	r24, 0x80	; 128
     700:	88 b9       	out	0x08, r24	; 8
		
		PORTA = (_data_ & 0xF0);
     702:	8c 2f       	mov	r24, r28
     704:	80 7f       	andi	r24, 0xF0	; 240
		trigger_EN();
     706:	82 b9       	out	0x02, r24	; 2
		
		delay_CTC();
     708:	e6 df       	rcall	.-52     	; 0x6d6 <trigger_EN>
		delay_CTC();
     70a:	d7 df       	rcall	.-82     	; 0x6ba <delay_CTC>
     70c:	d6 df       	rcall	.-84     	; 0x6ba <delay_CTC>
		delay_CTC();
     70e:	d5 df       	rcall	.-86     	; 0x6ba <delay_CTC>
     710:	20 e1       	ldi	r18, 0x10	; 16
		

		PORTA = ((_data_<<4) & 0xF0);
     712:	c2 9f       	mul	r28, r18
     714:	c0 01       	movw	r24, r0
		trigger_EN();
     716:	11 24       	eor	r1, r1
     718:	82 b9       	out	0x02, r24	; 2

		delay_CTC();
     71a:	dd df       	rcall	.-70     	; 0x6d6 <trigger_EN>
     71c:	ce df       	rcall	.-100    	; 0x6ba <delay_CTC>
		delay_CTC();
     71e:	cd df       	rcall	.-102    	; 0x6ba <delay_CTC>
     720:	cc df       	rcall	.-104    	; 0x6ba <delay_CTC>
		delay_CTC();
     722:	cf 91       	pop	r28
     724:	08 95       	ret

00000726 <send_command>:

	}
     726:	cf 93       	push	r28
     728:	c8 2f       	mov	r28, r24

	void send_command(char command)
	{
		config_delay_timer0_CTC(255);
     72a:	8f ef       	ldi	r24, 0xFF	; 255
     72c:	c1 df       	rcall	.-126    	; 0x6b0 <config_delay_timer0_CTC>
		
		//RS = comando
		PORTC &= ~(1<<7);
     72e:	88 b1       	in	r24, 0x08	; 8
     730:	8f 77       	andi	r24, 0x7F	; 127
     732:	88 b9       	out	0x08, r24	; 8

		PORTA = (command & 0xF0);
     734:	8c 2f       	mov	r24, r28
     736:	80 7f       	andi	r24, 0xF0	; 240
		trigger_EN();
     738:	82 b9       	out	0x02, r24	; 2
		
		delay_CTC();
     73a:	cd df       	rcall	.-102    	; 0x6d6 <trigger_EN>
		delay_CTC();
     73c:	be df       	rcall	.-132    	; 0x6ba <delay_CTC>
     73e:	bd df       	rcall	.-134    	; 0x6ba <delay_CTC>
		delay_CTC();
     740:	bc df       	rcall	.-136    	; 0x6ba <delay_CTC>
     742:	20 e1       	ldi	r18, 0x10	; 16

		PORTA = ((command<<4) & 0xF0);
     744:	c2 9f       	mul	r28, r18
     746:	c0 01       	movw	r24, r0
		trigger_EN();
     748:	11 24       	eor	r1, r1
     74a:	82 b9       	out	0x02, r24	; 2

		delay_CTC();
     74c:	c4 df       	rcall	.-120    	; 0x6d6 <trigger_EN>
     74e:	b5 df       	rcall	.-150    	; 0x6ba <delay_CTC>
		delay_CTC();
     750:	b4 df       	rcall	.-152    	; 0x6ba <delay_CTC>
     752:	b3 df       	rcall	.-154    	; 0x6ba <delay_CTC>
		delay_CTC();
     754:	cf 91       	pop	r28
     756:	08 95       	ret

00000758 <send_string>:

	}
     758:	cf 93       	push	r28
     75a:	df 93       	push	r29

	void send_string(char *string){
     75c:	ec 01       	movw	r28, r24
		
		while(*string != 0){
     75e:	02 c0       	rjmp	.+4      	; 0x764 <send_string+0xc>
			send_data(*string);
     760:	c9 df       	rcall	.-110    	; 0x6f4 <send_data>
			string++;
     762:	21 96       	adiw	r28, 0x01	; 1

	}

	void send_string(char *string){
		
		while(*string != 0){
     764:	88 81       	ld	r24, Y
     766:	81 11       	cpse	r24, r1
     768:	fb cf       	rjmp	.-10     	; 0x760 <send_string+0x8>
			send_data(*string);
			string++;
		}
	}
     76a:	df 91       	pop	r29
     76c:	cf 91       	pop	r28
     76e:	08 95       	ret

00000770 <limpa_reseta_cursor>:
	
	
	void limpa_reseta_cursor(){
		//Limpa display e reseta posição do cursor
		send_command(0x01);
     770:	81 e0       	ldi	r24, 0x01	; 1
     772:	d9 df       	rcall	.-78     	; 0x726 <send_command>
		delay_CTC();
     774:	a2 df       	rcall	.-188    	; 0x6ba <delay_CTC>
		delay_CTC();
     776:	a1 df       	rcall	.-190    	; 0x6ba <delay_CTC>
		delay_CTC();
     778:	a0 df       	rcall	.-192    	; 0x6ba <delay_CTC>
     77a:	fc c3       	rjmp	.+2040   	; 0xf74 <delay_1s>
		delay_1s();
     77c:	08 95       	ret

0000077e <config_lcd_padrao>:
     77e:	88 b1       	in	r24, 0x08	; 8
     780:	8f 7d       	andi	r24, 0xDF	; 223
		
		//FUNCTION SET:
		//Interface 4 bits
		//2 linhas
		//Caracteres 5x10
		PORTC &= ~(1<<5);
     782:	88 b9       	out	0x08, r24	; 8
		PORTC &= ~(1<<7);
     784:	88 b1       	in	r24, 0x08	; 8
     786:	8f 77       	andi	r24, 0x7F	; 127
     788:	88 b9       	out	0x08, r24	; 8
		PORTA = 0x28;
     78a:	88 e2       	ldi	r24, 0x28	; 40
     78c:	82 b9       	out	0x02, r24	; 2
		trigger_EN();
     78e:	a3 df       	rcall	.-186    	; 0x6d6 <trigger_EN>
		delay_CTC();
     790:	94 df       	rcall	.-216    	; 0x6ba <delay_CTC>
		delay_CTC();
     792:	93 df       	rcall	.-218    	; 0x6ba <delay_CTC>
		delay_CTC();
     794:	92 df       	rcall	.-220    	; 0x6ba <delay_CTC>
		
		
		//ENTRY MODE SET:
		//Incrementa posição do cursor
		send_command(0x06);
     796:	86 e0       	ldi	r24, 0x06	; 6
     798:	c6 df       	rcall	.-116    	; 0x726 <send_command>
		
		
		//CURSOR/DISPLAY SHIFT:
		//Cursor move
		//Para direita
		send_command(0x14);
     79a:	84 e1       	ldi	r24, 0x14	; 20
     79c:	c4 df       	rcall	.-120    	; 0x726 <send_command>
     79e:	8e e0       	ldi	r24, 0x0E	; 14
		
		//DISPLAY CONTROL:
		//Display ligado
		//Cursor ligado
		//Cursor não pisca
		send_command(0x0E);
     7a0:	c2 cf       	rjmp	.-124    	; 0x726 <send_command>
     7a2:	08 95       	ret

000007a4 <proxima_linha>:
     7a4:	80 ec       	ldi	r24, 0xC0	; 192
     7a6:	bf df       	rcall	.-130    	; 0x726 <send_command>
		
	}
	
	void proxima_linha(){
		send_command(0xC0);
		delay_CTC();
     7a8:	88 df       	rcall	.-240    	; 0x6ba <delay_CTC>
		delay_CTC();
     7aa:	87 df       	rcall	.-242    	; 0x6ba <delay_CTC>
     7ac:	86 cf       	rjmp	.-244    	; 0x6ba <delay_CTC>
		delay_CTC();
     7ae:	08 95       	ret

000007b0 <telaSelecionarMotivoAlarme>:
     7b0:	df df       	rcall	.-66     	; 0x770 <limpa_reseta_cursor>
     7b2:	83 e8       	ldi	r24, 0x83	; 131
		///TELAS///
		
	void telaSelecionarMotivoAlarme()
	{
		limpa_reseta_cursor();
		send_string("* - ALARME FALSO");
     7b4:	92 e0       	ldi	r25, 0x02	; 2
		proxima_linha();
     7b6:	d0 df       	rcall	.-96     	; 0x758 <send_string>
		send_string("# - MAIS OPCOES");
     7b8:	f5 df       	rcall	.-22     	; 0x7a4 <proxima_linha>
     7ba:	84 e9       	ldi	r24, 0x94	; 148
     7bc:	92 e0       	ldi	r25, 0x02	; 2
     7be:	cc cf       	rjmp	.-104    	; 0x758 <send_string>
     7c0:	08 95       	ret

000007c2 <telaOpcaoIntrusoOuInvadido>:
	}
	
	void telaOpcaoIntrusoOuInvadido()
	{
		limpa_reseta_cursor();
     7c2:	d6 df       	rcall	.-84     	; 0x770 <limpa_reseta_cursor>
		send_string("* Intruso local");
     7c4:	84 ea       	ldi	r24, 0xA4	; 164
     7c6:	92 e0       	ldi	r25, 0x02	; 2
		proxima_linha();
     7c8:	c7 df       	rcall	.-114    	; 0x758 <send_string>
		send_string("# Invadido");
     7ca:	ec df       	rcall	.-40     	; 0x7a4 <proxima_linha>
     7cc:	84 eb       	ldi	r24, 0xB4	; 180
     7ce:	92 e0       	ldi	r25, 0x02	; 2
     7d0:	c3 cf       	rjmp	.-122    	; 0x758 <send_string>
     7d2:	08 95       	ret

000007d4 <telaMotivoAlarme>:
	}
	
	void telaMotivoAlarme()
	{
		limpa_reseta_cursor();
     7d4:	cd df       	rcall	.-102    	; 0x770 <limpa_reseta_cursor>
		send_string("MOTIVO DO ALARME");
     7d6:	8f eb       	ldi	r24, 0xBF	; 191
     7d8:	92 e0       	ldi	r25, 0x02	; 2
     7da:	be cf       	rjmp	.-132    	; 0x758 <send_string>
     7dc:	08 95       	ret

000007de <printa_horarioreal>:
	}
	
	void printa_horarioreal(int diaAtual, int horaAtual, int minAtual){
     7de:	1f 93       	push	r17
     7e0:	cf 93       	push	r28
     7e2:	df 93       	push	r29
     7e4:	18 2f       	mov	r17, r24
     7e6:	d6 2f       	mov	r29, r22
     7e8:	c4 2f       	mov	r28, r20
		limpa_reseta_cursor();
     7ea:	c2 df       	rcall	.-124    	; 0x770 <limpa_reseta_cursor>
		send_string("data: ");
     7ec:	80 ed       	ldi	r24, 0xD0	; 208
     7ee:	92 e0       	ldi	r25, 0x02	; 2
     7f0:	b3 df       	rcall	.-154    	; 0x758 <send_string>
		escreveNumero(diaAtual);
     7f2:	81 2f       	mov	r24, r17
     7f4:	9f dd       	rcall	.-1218   	; 0x334 <escreveNumero>
		send_string(":");
     7f6:	8d ee       	ldi	r24, 0xED	; 237
     7f8:	93 e0       	ldi	r25, 0x03	; 3
     7fa:	ae df       	rcall	.-164    	; 0x758 <send_string>
		escreveNumero(horaAtual);
     7fc:	8d 2f       	mov	r24, r29
     7fe:	9a dd       	rcall	.-1228   	; 0x334 <escreveNumero>
		send_string(":");
     800:	8d ee       	ldi	r24, 0xED	; 237
     802:	93 e0       	ldi	r25, 0x03	; 3
     804:	a9 df       	rcall	.-174    	; 0x758 <send_string>
     806:	8c 2f       	mov	r24, r28
		escreveNumero(minAtual);
     808:	95 dd       	rcall	.-1238   	; 0x334 <escreveNumero>
     80a:	df 91       	pop	r29
     80c:	cf 91       	pop	r28
	}
     80e:	1f 91       	pop	r17
     810:	08 95       	ret

00000812 <telaSenhasOuMais>:
     812:	ae df       	rcall	.-164    	; 0x770 <limpa_reseta_cursor>
     814:	87 ed       	ldi	r24, 0xD7	; 215

	void telaSenhasOuMais()
	{
		limpa_reseta_cursor();
		send_string("* SENHAS");
     816:	92 e0       	ldi	r25, 0x02	; 2
		proxima_linha();
     818:	9f df       	rcall	.-194    	; 0x758 <send_string>
		send_string("# MAIS OPCOES");
     81a:	c4 df       	rcall	.-120    	; 0x7a4 <proxima_linha>
     81c:	80 ee       	ldi	r24, 0xE0	; 224
     81e:	92 e0       	ldi	r25, 0x02	; 2
     820:	9b cf       	rjmp	.-202    	; 0x758 <send_string>
     822:	08 95       	ret

00000824 <telaEstadosOuMais>:
	}
	
	void telaEstadosOuMais()
	{
		limpa_reseta_cursor();
     824:	a5 df       	rcall	.-182    	; 0x770 <limpa_reseta_cursor>
		send_string("* ESTADO USUARIO");
     826:	8e ee       	ldi	r24, 0xEE	; 238
     828:	92 e0       	ldi	r25, 0x02	; 2
		proxima_linha();
     82a:	96 df       	rcall	.-212    	; 0x758 <send_string>
		send_string("# MAIS OPCOES");
     82c:	bb df       	rcall	.-138    	; 0x7a4 <proxima_linha>
     82e:	80 ee       	ldi	r24, 0xE0	; 224
     830:	92 e0       	ldi	r25, 0x02	; 2
     832:	92 cf       	rjmp	.-220    	; 0x758 <send_string>
     834:	08 95       	ret

00000836 <telaHorasOuMais>:
		
	}
	void telaHorasOuMais()
	{
		limpa_reseta_cursor();
     836:	9c df       	rcall	.-200    	; 0x770 <limpa_reseta_cursor>
		send_string("* PEDIR HORAS");
     838:	8f ef       	ldi	r24, 0xFF	; 255
     83a:	92 e0       	ldi	r25, 0x02	; 2
		proxima_linha();
     83c:	8d df       	rcall	.-230    	; 0x758 <send_string>
		send_string("# MAIS OPCOES");
     83e:	b2 df       	rcall	.-156    	; 0x7a4 <proxima_linha>
     840:	80 ee       	ldi	r24, 0xE0	; 224
     842:	92 e0       	ldi	r25, 0x02	; 2
     844:	89 cf       	rjmp	.-238    	; 0x758 <send_string>
     846:	08 95       	ret

00000848 <telaModNotOuSair>:
	}

	void telaModNotOuSair()
	{
		limpa_reseta_cursor();
     848:	93 df       	rcall	.-218    	; 0x770 <limpa_reseta_cursor>
		send_string("* ");
     84a:	8d e0       	ldi	r24, 0x0D	; 13
     84c:	93 e0       	ldi	r25, 0x03	; 3
     84e:	84 df       	rcall	.-248    	; 0x758 <send_string>
		if(!modoNoturnoStatus)
     850:	80 91 c4 04 	lds	r24, 0x04C4	; 0x8004c4 <modoNoturnoStatus>
     854:	81 11       	cpse	r24, r1
     856:	04 c0       	rjmp	.+8      	; 0x860 <telaModNotOuSair+0x18>
		{
			send_string("HAB");
     858:	80 e1       	ldi	r24, 0x10	; 16
     85a:	93 e0       	ldi	r25, 0x03	; 3
     85c:	7d df       	rcall	.-262    	; 0x758 <send_string>
     85e:	03 c0       	rjmp	.+6      	; 0x866 <telaModNotOuSair+0x1e>
		}else
		{
			send_string("DES");
     860:	84 e1       	ldi	r24, 0x14	; 20
     862:	93 e0       	ldi	r25, 0x03	; 3
     864:	79 df       	rcall	.-270    	; 0x758 <send_string>
		}
		send_string(" MODO NOT");
     866:	88 e1       	ldi	r24, 0x18	; 24
     868:	93 e0       	ldi	r25, 0x03	; 3
     86a:	76 df       	rcall	.-276    	; 0x758 <send_string>
		proxima_linha();
     86c:	9b df       	rcall	.-202    	; 0x7a4 <proxima_linha>
     86e:	82 e2       	ldi	r24, 0x22	; 34
		send_string("# SAIR");
     870:	93 e0       	ldi	r25, 0x03	; 3
     872:	72 cf       	rjmp	.-284    	; 0x758 <send_string>
     874:	08 95       	ret

00000876 <telaSenhaInvalida>:
     876:	7c df       	rcall	.-264    	; 0x770 <limpa_reseta_cursor>
     878:	89 e2       	ldi	r24, 0x29	; 41
	}

	void telaSenhaInvalida()
	{
		limpa_reseta_cursor();
		send_string("SENHA INVALIDA");
     87a:	93 e0       	ldi	r25, 0x03	; 3
     87c:	6d cf       	rjmp	.-294    	; 0x758 <send_string>
     87e:	08 95       	ret

00000880 <telaTrocaSenhas>:
	}

	void telaTrocaSenhas()
	{
		limpa_reseta_cursor();
     880:	77 df       	rcall	.-274    	; 0x770 <limpa_reseta_cursor>
		send_string("1/2 - USUARIO1/2");
     882:	88 e3       	ldi	r24, 0x38	; 56
     884:	93 e0       	ldi	r25, 0x03	; 3
		proxima_linha();
     886:	68 df       	rcall	.-304    	; 0x758 <send_string>
		send_string("* - ADM");
     888:	8d df       	rcall	.-230    	; 0x7a4 <proxima_linha>
     88a:	89 e4       	ldi	r24, 0x49	; 73
     88c:	93 e0       	ldi	r25, 0x03	; 3
     88e:	64 cf       	rjmp	.-312    	; 0x758 <send_string>
     890:	08 95       	ret

00000892 <telaDeStatusUsuario>:
	}

	void telaDeStatusUsuario()
	{
		limpa_reseta_cursor();
     892:	6e df       	rcall	.-292    	; 0x770 <limpa_reseta_cursor>
		send_string("1 - ");
     894:	81 e5       	ldi	r24, 0x51	; 81
     896:	93 e0       	ldi	r25, 0x03	; 3
     898:	5f df       	rcall	.-322    	; 0x758 <send_string>
		if(!usuario1Status)
     89a:	80 91 12 02 	lds	r24, 0x0212	; 0x800212 <usuario1Status>
     89e:	81 11       	cpse	r24, r1
     8a0:	04 c0       	rjmp	.+8      	; 0x8aa <telaDeStatusUsuario+0x18>
		{
			send_string("HAB");//TELA PARA HABILITAR USUARO 1
     8a2:	80 e1       	ldi	r24, 0x10	; 16
     8a4:	93 e0       	ldi	r25, 0x03	; 3
     8a6:	58 df       	rcall	.-336    	; 0x758 <send_string>
     8a8:	03 c0       	rjmp	.+6      	; 0x8b0 <telaDeStatusUsuario+0x1e>
		}else
		{
			send_string("DES");//TELA PARA HABILITAR USUARO 1
     8aa:	84 e1       	ldi	r24, 0x14	; 20
     8ac:	93 e0       	ldi	r25, 0x03	; 3
     8ae:	54 df       	rcall	.-344    	; 0x758 <send_string>
		}
		send_string(" USUARIO1");
     8b0:	86 e5       	ldi	r24, 0x56	; 86
     8b2:	93 e0       	ldi	r25, 0x03	; 3
     8b4:	51 df       	rcall	.-350    	; 0x758 <send_string>
		proxima_linha();
     8b6:	76 df       	rcall	.-276    	; 0x7a4 <proxima_linha>
     8b8:	80 e6       	ldi	r24, 0x60	; 96
		send_string("2 - ");
     8ba:	93 e0       	ldi	r25, 0x03	; 3
     8bc:	4d df       	rcall	.-358    	; 0x758 <send_string>
     8be:	80 91 11 02 	lds	r24, 0x0211	; 0x800211 <usuario2Status>
		if(!usuario2Status)
     8c2:	81 11       	cpse	r24, r1
     8c4:	04 c0       	rjmp	.+8      	; 0x8ce <telaDeStatusUsuario+0x3c>
		{
			send_string("HAB");//TELA PARA HABILITAR USUARO 2
     8c6:	80 e1       	ldi	r24, 0x10	; 16
     8c8:	93 e0       	ldi	r25, 0x03	; 3
     8ca:	46 df       	rcall	.-372    	; 0x758 <send_string>
     8cc:	03 c0       	rjmp	.+6      	; 0x8d4 <telaDeStatusUsuario+0x42>
		}else
		{
			send_string("DES");//TELA PARA HABILITAR USUARO 2
     8ce:	84 e1       	ldi	r24, 0x14	; 20
     8d0:	93 e0       	ldi	r25, 0x03	; 3
     8d2:	42 df       	rcall	.-380    	; 0x758 <send_string>
     8d4:	85 e6       	ldi	r24, 0x65	; 101
		}
		send_string(" USUARIO2  ");
     8d6:	93 e0       	ldi	r25, 0x03	; 3
     8d8:	3f cf       	rjmp	.-386    	; 0x758 <send_string>
     8da:	08 95       	ret

000008dc <telaResetSenhas>:
     8dc:	49 df       	rcall	.-366    	; 0x770 <limpa_reseta_cursor>
     8de:	81 e7       	ldi	r24, 0x71	; 113
	}

	void telaResetSenhas()
	{
		limpa_reseta_cursor();
		send_string("* RESET SENHAS");
     8e0:	93 e0       	ldi	r25, 0x03	; 3
		proxima_linha();
     8e2:	3a df       	rcall	.-396    	; 0x758 <send_string>
		send_string("# TROCAR SENHAS");
     8e4:	5f df       	rcall	.-322    	; 0x7a4 <proxima_linha>
     8e6:	80 e8       	ldi	r24, 0x80	; 128
     8e8:	93 e0       	ldi	r25, 0x03	; 3
     8ea:	36 cf       	rjmp	.-404    	; 0x758 <send_string>
     8ec:	08 95       	ret

000008ee <telaResetarSenhas>:
		
	}

	void telaResetarSenhas(){
		limpa_reseta_cursor();
     8ee:	40 df       	rcall	.-384    	; 0x770 <limpa_reseta_cursor>
		send_string("RESETAR SENHAS?");
     8f0:	80 e9       	ldi	r24, 0x90	; 144
     8f2:	93 e0       	ldi	r25, 0x03	; 3
		proxima_linha();
     8f4:	31 df       	rcall	.-414    	; 0x758 <send_string>
		send_string("* - SIM  # - NAO");
     8f6:	56 df       	rcall	.-340    	; 0x7a4 <proxima_linha>
     8f8:	80 ea       	ldi	r24, 0xA0	; 160
     8fa:	93 e0       	ldi	r25, 0x03	; 3
     8fc:	2d cf       	rjmp	.-422    	; 0x758 <send_string>
     8fe:	08 95       	ret

00000900 <telaSenhasDivergentes>:
	}

	void telaSenhasDivergentes(){
		limpa_reseta_cursor();
     900:	37 df       	rcall	.-402    	; 0x770 <limpa_reseta_cursor>
		send_string("     SENHAS     ");
     902:	81 eb       	ldi	r24, 0xB1	; 177
     904:	93 e0       	ldi	r25, 0x03	; 3
		proxima_linha();
     906:	28 df       	rcall	.-432    	; 0x758 <send_string>
		send_string("  DIVERGENTES   ");
     908:	4d df       	rcall	.-358    	; 0x7a4 <proxima_linha>
     90a:	82 ec       	ldi	r24, 0xC2	; 194
     90c:	93 e0       	ldi	r25, 0x03	; 3
     90e:	24 cf       	rjmp	.-440    	; 0x758 <send_string>
     910:	08 95       	ret

00000912 <telaNovaSenha>:
	}

	void telaNovaSenha(){
		limpa_reseta_cursor();
     912:	2e df       	rcall	.-420    	; 0x770 <limpa_reseta_cursor>
		send_string("NOVA SENHA:");
     914:	83 ed       	ldi	r24, 0xD3	; 211
     916:	93 e0       	ldi	r25, 0x03	; 3
		proxima_linha();
     918:	1f df       	rcall	.-450    	; 0x758 <send_string>
     91a:	44 cf       	rjmp	.-376    	; 0x7a4 <proxima_linha>
     91c:	08 95       	ret

0000091e <telaConfirmaSenha>:
	}

	void telaConfirmaSenha(){
		limpa_reseta_cursor();
     91e:	28 df       	rcall	.-432    	; 0x770 <limpa_reseta_cursor>
		send_string("REPITA A SENHA:");
     920:	8f ed       	ldi	r24, 0xDF	; 223
     922:	93 e0       	ldi	r25, 0x03	; 3
		proxima_linha();
     924:	19 df       	rcall	.-462    	; 0x758 <send_string>
     926:	3e cf       	rjmp	.-388    	; 0x7a4 <proxima_linha>
     928:	08 95       	ret

0000092a <telaModoNoturnoOn>:
	}
	
	void telaModoNoturnoOn(){
		limpa_reseta_cursor();
     92a:	22 df       	rcall	.-444    	; 0x770 <limpa_reseta_cursor>
		send_string("MODO NOTURNO ON");
     92c:	8f ee       	ldi	r24, 0xEF	; 239
     92e:	93 e0       	ldi	r25, 0x03	; 3
		proxima_linha();
     930:	13 df       	rcall	.-474    	; 0x758 <send_string>
		send_string("senha:");
     932:	38 df       	rcall	.-400    	; 0x7a4 <proxima_linha>
     934:	8f ef       	ldi	r24, 0xFF	; 255
     936:	93 e0       	ldi	r25, 0x03	; 3
     938:	0f cf       	rjmp	.-482    	; 0x758 <send_string>
     93a:	08 95       	ret

0000093c <telaModoNoturnoOff>:
	}
	
	void telaModoNoturnoOff(){
		limpa_reseta_cursor();
     93c:	19 df       	rcall	.-462    	; 0x770 <limpa_reseta_cursor>
		send_string("MODO NOTURNO OFF");
     93e:	86 e0       	ldi	r24, 0x06	; 6
     940:	94 e0       	ldi	r25, 0x04	; 4
		proxima_linha();
     942:	0a df       	rcall	.-492    	; 0x758 <send_string>
		send_string("senha:");
     944:	2f df       	rcall	.-418    	; 0x7a4 <proxima_linha>
     946:	8f ef       	ldi	r24, 0xFF	; 255
     948:	93 e0       	ldi	r25, 0x03	; 3
     94a:	06 cf       	rjmp	.-500    	; 0x758 <send_string>
     94c:	08 95       	ret

0000094e <telaInicio>:
	}
	
	void telaInicio(){
		limpa_reseta_cursor();
     94e:	10 df       	rcall	.-480    	; 0x770 <limpa_reseta_cursor>
		send_string("---ALARMICROS---");
     950:	87 e1       	ldi	r24, 0x17	; 23
     952:	94 e0       	ldi	r25, 0x04	; 4
		proxima_linha();
     954:	01 df       	rcall	.-510    	; 0x758 <send_string>
		send_string("SENHA:");
     956:	26 df       	rcall	.-436    	; 0x7a4 <proxima_linha>
     958:	88 ee       	ldi	r24, 0xE8	; 232
     95a:	93 e0       	ldi	r25, 0x03	; 3
     95c:	fd ce       	rjmp	.-518    	; 0x758 <send_string>
     95e:	08 95       	ret

00000960 <telaSensorAtivado>:
	}
	
	void telaSensorAtivado(){
		limpa_reseta_cursor();
     960:	07 df       	rcall	.-498    	; 0x770 <limpa_reseta_cursor>
		send_string("INTRUSO");
     962:	88 e2       	ldi	r24, 0x28	; 40
     964:	94 e0       	ldi	r25, 0x04	; 4
		proxima_linha();
     966:	f8 de       	rcall	.-528    	; 0x758 <send_string>
		send_string("SENHA:");
     968:	1d df       	rcall	.-454    	; 0x7a4 <proxima_linha>
     96a:	88 ee       	ldi	r24, 0xE8	; 232
     96c:	93 e0       	ldi	r25, 0x03	; 3
     96e:	f4 ce       	rjmp	.-536    	; 0x758 <send_string>
     970:	08 95       	ret

00000972 <telaAlarmeOff>:
	}
	
	void telaAlarmeOff(){
		limpa_reseta_cursor();
     972:	fe de       	rcall	.-516    	; 0x770 <limpa_reseta_cursor>
		send_string("ALARME OFF");
     974:	80 e3       	ldi	r24, 0x30	; 48
     976:	94 e0       	ldi	r25, 0x04	; 4
     978:	ef ce       	rjmp	.-546    	; 0x758 <send_string>
     97a:	08 95       	ret

0000097c <telaATivandoOSistema>:
	}
	
	void telaATivandoOSistema(){
		limpa_reseta_cursor();
     97c:	f9 de       	rcall	.-526    	; 0x770 <limpa_reseta_cursor>
		send_string("ATIVANDO SISTEMA");
     97e:	8b e3       	ldi	r24, 0x3B	; 59
     980:	94 e0       	ldi	r25, 0x04	; 4
     982:	ea ce       	rjmp	.-556    	; 0x758 <send_string>
     984:	08 95       	ret

00000986 <telaSenhaIncorreta>:
	}
	
	void telaSenhaIncorreta(){
		limpa_reseta_cursor();
     986:	f4 de       	rcall	.-536    	; 0x770 <limpa_reseta_cursor>
		send_string("SENHA INCORRETA");
     988:	8c e4       	ldi	r24, 0x4C	; 76
     98a:	94 e0       	ldi	r25, 0x04	; 4
		proxima_linha();
     98c:	e5 de       	rcall	.-566    	; 0x758 <send_string>
		send_string("SENHA:");
     98e:	0a df       	rcall	.-492    	; 0x7a4 <proxima_linha>
     990:	88 ee       	ldi	r24, 0xE8	; 232
     992:	93 e0       	ldi	r25, 0x03	; 3
     994:	e1 ce       	rjmp	.-574    	; 0x758 <send_string>
     996:	08 95       	ret

00000998 <telaSenhaCorreta>:
	}
	
	void telaSenhaCorreta(){
		limpa_reseta_cursor();
     998:	eb de       	rcall	.-554    	; 0x770 <limpa_reseta_cursor>
		send_string("SENHA CORRETA");
     99a:	8c e5       	ldi	r24, 0x5C	; 92
     99c:	94 e0       	ldi	r25, 0x04	; 4
     99e:	dc ce       	rjmp	.-584    	; 0x758 <send_string>
     9a0:	08 95       	ret

000009a2 <telaBemVindoAdm>:
	}
	
	void telaBemVindoAdm(){
		proxima_linha();
     9a2:	00 df       	rcall	.-512    	; 0x7a4 <proxima_linha>
		send_string("BEM-VINDO ADM");
     9a4:	8a e6       	ldi	r24, 0x6A	; 106
     9a6:	94 e0       	ldi	r25, 0x04	; 4
     9a8:	d7 ce       	rjmp	.-594    	; 0x758 <send_string>
     9aa:	08 95       	ret

000009ac <telaAlarmeAtivo>:
	}
	
	void telaAlarmeAtivo(){
		limpa_reseta_cursor();
     9ac:	e1 de       	rcall	.-574    	; 0x770 <limpa_reseta_cursor>
		send_string("ALARME ATIVO");
     9ae:	88 e7       	ldi	r24, 0x78	; 120
     9b0:	94 e0       	ldi	r25, 0x04	; 4
		proxima_linha();
     9b2:	d2 de       	rcall	.-604    	; 0x758 <send_string>
		send_string("SENHA:");
     9b4:	f7 de       	rcall	.-530    	; 0x7a4 <proxima_linha>
     9b6:	88 ee       	ldi	r24, 0xE8	; 232
     9b8:	93 e0       	ldi	r25, 0x03	; 3
     9ba:	ce ce       	rjmp	.-612    	; 0x758 <send_string>
     9bc:	08 95       	ret

000009be <modoNoturno>:

char alarme_ativo;
char esperaAlarme = 1;

void modoNoturno(){
	if ((modoNoturnoStatus == 1) && (hora >= 0) && (hora < 6)){//se hora esta dentro dos limites do modo noturno, o alarme é ativado automaticamente, modonoturnostatus é alterado na subRotinaAdm
     9be:	80 91 c4 04 	lds	r24, 0x04C4	; 0x8004c4 <modoNoturnoStatus>
     9c2:	81 30       	cpi	r24, 0x01	; 1
     9c4:	71 f4       	brne	.+28     	; 0x9e2 <modoNoturno+0x24>
     9c6:	80 91 cb 04 	lds	r24, 0x04CB	; 0x8004cb <hora>
     9ca:	86 30       	cpi	r24, 0x06	; 6
     9cc:	50 f4       	brcc	.+20     	; 0x9e2 <modoNoturno+0x24>
		if((hora == 0) && (min == 0)){
     9ce:	81 11       	cpse	r24, r1
     9d0:	08 c0       	rjmp	.+16     	; 0x9e2 <modoNoturno+0x24>
     9d2:	80 91 ca 04 	lds	r24, 0x04CA	; 0x8004ca <min>
     9d6:	81 11       	cpse	r24, r1
     9d8:	04 c0       	rjmp	.+8      	; 0x9e2 <modoNoturno+0x24>
			alarme_ativo = 1;
     9da:	81 e0       	ldi	r24, 0x01	; 1
     9dc:	80 93 c2 04 	sts	0x04C2, r24	; 0x8004c2 <alarme_ativo>
			telaModoNoturnoOn();
     9e0:	a4 df       	rcall	.-184    	; 0x92a <telaModoNoturnoOn>
		}
	}
	if ((modoNoturnoStatus == 1) && (hora >= 6) && (hora < 24)){//caso esteja fora do horário para o modo noturno, o alarme do modo noturno é desligado
     9e2:	80 91 c4 04 	lds	r24, 0x04C4	; 0x8004c4 <modoNoturnoStatus>
     9e6:	81 30       	cpi	r24, 0x01	; 1
     9e8:	79 f4       	brne	.+30     	; 0xa08 <modoNoturno+0x4a>
     9ea:	80 91 cb 04 	lds	r24, 0x04CB	; 0x8004cb <hora>
     9ee:	86 30       	cpi	r24, 0x06	; 6
     9f0:	58 f0       	brcs	.+22     	; 0xa08 <modoNoturno+0x4a>
     9f2:	88 31       	cpi	r24, 0x18	; 24
     9f4:	48 f4       	brcc	.+18     	; 0xa08 <modoNoturno+0x4a>
		if((hora == 6) && (min == 0)){
     9f6:	86 30       	cpi	r24, 0x06	; 6
     9f8:	39 f4       	brne	.+14     	; 0xa08 <modoNoturno+0x4a>
     9fa:	80 91 ca 04 	lds	r24, 0x04CA	; 0x8004ca <min>
     9fe:	81 11       	cpse	r24, r1
     a00:	03 c0       	rjmp	.+6      	; 0xa08 <modoNoturno+0x4a>
			alarme_ativo = 0;
     a02:	10 92 c2 04 	sts	0x04C2, r1	; 0x8004c2 <alarme_ativo>
			telaModoNoturnoOff();
     a06:	9a cf       	rjmp	.-204    	; 0x93c <telaModoNoturnoOff>
     a08:	08 95       	ret

00000a0a <main>:
	}
}

int main(void)
{
	alarme_ativo = 0;
     a0a:	10 92 c2 04 	sts	0x04C2, r1	; 0x8004c2 <alarme_ativo>
	admLogin = 0;
     a0e:	10 92 e5 04 	sts	0x04E5, r1	; 0x8004e5 <admLogin>
	//------------- organizacao das interrupçoes do teclado:
	DDRB = 0xFF;
     a12:	8f ef       	ldi	r24, 0xFF	; 255
     a14:	84 b9       	out	0x04, r24	; 4
	PORTB = 0;
     a16:	15 b8       	out	0x05, r1	; 5
	DDRK = 0b11110000; //  (1) PORTK(0-3) output / (0) PORTK(4-7) input
     a18:	80 ef       	ldi	r24, 0xF0	; 240
     a1a:	80 93 07 01 	sts	0x0107, r24	; 0x800107 <__TEXT_REGION_LENGTH__+0x7c0107>
	PORTK = 0b00001111; //pull up do input ativado
     a1e:	9f e0       	ldi	r25, 0x0F	; 15
     a20:	90 93 08 01 	sts	0x0108, r25	; 0x800108 <__TEXT_REGION_LENGTH__+0x7c0108>
	PCICR |= 0b00000100; //ativa interrupção dos pinos PCINT16 ao PCINT23 = K0 ao K7
     a24:	e8 e6       	ldi	r30, 0x68	; 104
     a26:	f0 e0       	ldi	r31, 0x00	; 0
     a28:	80 81       	ld	r24, Z
     a2a:	84 60       	ori	r24, 0x04	; 4
     a2c:	80 83       	st	Z, r24
	PCMSK2 = 0x0F; //ínterrupção nos pinos K0 até K7;
     a2e:	90 93 6d 00 	sts	0x006D, r25	; 0x80006d <__TEXT_REGION_LENGTH__+0x7c006d>
	sei(); //set enable interrupts -- seta 1 no bit I do status register
     a32:	78 94       	sei
	//-------------------------------
	inicializarSerial();
     a34:	46 dc       	rcall	.-1908   	; 0x2c2 <inicializarSerial>
	ativarSerialInterrupt();
     a36:	39 dc       	rcall	.-1934   	; 0x2aa <ativarSerialInterrupt>
	
	config_timer_ok();
     a38:	ad d2       	rcall	.+1370   	; 0xf94 <config_timer_ok>
	config_timer1();
     a3a:	52 d2       	rcall	.+1188   	; 0xee0 <config_timer1>
	config_porta_avr();
     a3c:	47 de       	rcall	.-882    	; 0x6cc <config_porta_avr>
     a3e:	9f de       	rcall	.-706    	; 0x77e <config_lcd_padrao>
	config_lcd_padrao();
     a40:	86 df       	rcall	.-244    	; 0x94e <telaInicio>
     a42:	80 91 c2 04 	lds	r24, 0x04C2	; 0x8004c2 <alarme_ativo>
	telaInicio();
     a46:	88 23       	and	r24, r24
    while (1){
			if (alarme_ativo && intruso_detectado){//caso um sensor seja ativado e o alarme esteja ativo
     a48:	09 f4       	brne	.+2      	; 0xa4c <main+0x42>
     a4a:	6c c0       	rjmp	.+216    	; 0xb24 <main+0x11a>
     a4c:	80 91 c1 04 	lds	r24, 0x04C1	; 0x8004c1 <intruso_detectado>
     a50:	88 23       	and	r24, r24
     a52:	09 f4       	brne	.+2      	; 0xa56 <main+0x4c>
     a54:	67 c0       	rjmp	.+206    	; 0xb24 <main+0x11a>
     a56:	80 91 e3 04 	lds	r24, 0x04E3	; 0x8004e3 <tecla>
     a5a:	80 93 e2 04 	sts	0x04E2, r24	; 0x8004e2 <sensorAtivo>
				sensorAtivo = tecla;
     a5e:	ea ed       	ldi	r30, 0xDA	; 218
     a60:	f4 e0       	ldi	r31, 0x04	; 4
     a62:	80 91 cc 04 	lds	r24, 0x04CC	; 0x8004cc <dia>
				horarioSensor[0] = dia;//guarda o horário que a o sensor foi ativado
     a66:	90 e0       	ldi	r25, 0x00	; 0
     a68:	91 83       	std	Z+1, r25	; 0x01
     a6a:	80 83       	st	Z, r24
     a6c:	80 91 cb 04 	lds	r24, 0x04CB	; 0x8004cb <hora>
     a70:	90 e0       	ldi	r25, 0x00	; 0
				horarioSensor[1] = hora;
     a72:	93 83       	std	Z+3, r25	; 0x03
     a74:	82 83       	std	Z+2, r24	; 0x02
     a76:	80 91 ca 04 	lds	r24, 0x04CA	; 0x8004ca <min>
				horarioSensor[2] = min;
     a7a:	90 e0       	ldi	r25, 0x00	; 0
     a7c:	95 83       	std	Z+5, r25	; 0x05
     a7e:	84 83       	std	Z+4, r24	; 0x04
     a80:	52 db       	rcall	.-2396   	; 0x126 <delay_piscaled>
     a82:	80 91 c2 04 	lds	r24, 0x04C2	; 0x8004c2 <alarme_ativo>
				delay_piscaled();//pisca os leds durante 25 segundos antes de ativar o alarm
     a86:	88 23       	and	r24, r24
				if(alarme_ativo && intruso_detectado)//caso nenhum usuário tenha desligado o alarme durante o tempo de 25seg
     a88:	51 f1       	breq	.+84     	; 0xade <main+0xd4>
     a8a:	80 91 c1 04 	lds	r24, 0x04C1	; 0x8004c1 <intruso_detectado>
     a8e:	88 23       	and	r24, r24
     a90:	31 f1       	breq	.+76     	; 0xade <main+0xd4>
     a92:	10 92 23 02 	sts	0x0223, r1	; 0x800223 <esperaAlarme>
     a96:	80 91 e2 04 	lds	r24, 0x04E2	; 0x8004e2 <sensorAtivo>
				{
					esperaAlarme=0; // tempo sem som de alarme acabou
					
					if(sensorAtivo == 'A'){//enviamos para a central o aviso de que sensor foi ativado 
     a9a:	81 34       	cpi	r24, 0x41	; 65
     a9c:	29 f4       	brne	.+10     	; 0xaa8 <main+0x9e>
     a9e:	8d ed       	ldi	r24, 0xDD	; 221
						enviarStringSerial("AS");
     aa0:	92 e0       	ldi	r25, 0x02	; 2
     aa2:	36 dc       	rcall	.-1940   	; 0x310 <enviarStringSerial>
     aa4:	81 e0       	ldi	r24, 0x01	; 1
						enviarByteSerial(0b1);
     aa6:	25 dc       	rcall	.-1974   	; 0x2f2 <enviarByteSerial>
     aa8:	80 91 e2 04 	lds	r24, 0x04E2	; 0x8004e2 <sensorAtivo>
					}
					if(sensorAtivo == 'B'){
     aac:	82 34       	cpi	r24, 0x42	; 66
     aae:	29 f4       	brne	.+10     	; 0xaba <main+0xb0>
     ab0:	8d ed       	ldi	r24, 0xDD	; 221
						enviarStringSerial("AS");
     ab2:	92 e0       	ldi	r25, 0x02	; 2
     ab4:	2d dc       	rcall	.-1958   	; 0x310 <enviarStringSerial>
     ab6:	82 e0       	ldi	r24, 0x02	; 2
						enviarByteSerial(0b10);
     ab8:	1c dc       	rcall	.-1992   	; 0x2f2 <enviarByteSerial>
     aba:	80 91 e2 04 	lds	r24, 0x04E2	; 0x8004e2 <sensorAtivo>
					} 
					if(sensorAtivo =='C'){
     abe:	83 34       	cpi	r24, 0x43	; 67
     ac0:	29 f4       	brne	.+10     	; 0xacc <main+0xc2>
     ac2:	8d ed       	ldi	r24, 0xDD	; 221
						enviarStringSerial("AS");
     ac4:	92 e0       	ldi	r25, 0x02	; 2
     ac6:	24 dc       	rcall	.-1976   	; 0x310 <enviarStringSerial>
     ac8:	84 e0       	ldi	r24, 0x04	; 4
						enviarByteSerial(0b100);
     aca:	13 dc       	rcall	.-2010   	; 0x2f2 <enviarByteSerial>
     acc:	80 91 e2 04 	lds	r24, 0x04E2	; 0x8004e2 <sensorAtivo>
					}
					if(sensorAtivo =='D'){
     ad0:	84 34       	cpi	r24, 0x44	; 68
     ad2:	29 f4       	brne	.+10     	; 0xade <main+0xd4>
     ad4:	8d ed       	ldi	r24, 0xDD	; 221
						enviarStringSerial("AS");
     ad6:	92 e0       	ldi	r25, 0x02	; 2
     ad8:	1b dc       	rcall	.-1994   	; 0x310 <enviarStringSerial>
     ada:	88 e0       	ldi	r24, 0x08	; 8
						enviarByteSerial(0b1000);
     adc:	0a dc       	rcall	.-2028   	; 0x2f2 <enviarByteSerial>
     ade:	80 91 c2 04 	lds	r24, 0x04C2	; 0x8004c2 <alarme_ativo>
					}
				}
				if(alarme_ativo && intruso_detectado ){
     ae2:	88 23       	and	r24, r24
     ae4:	e1 f0       	breq	.+56     	; 0xb1e <main+0x114>
     ae6:	80 91 c1 04 	lds	r24, 0x04C1	; 0x8004c1 <intruso_detectado>
     aea:	88 23       	and	r24, r24
     aec:	c1 f0       	breq	.+48     	; 0xb1e <main+0x114>
					desativarSerialInterrupt();//desligamos o interrupt para não afetar o funcionamento do som do alarme
     aee:	e3 db       	rcall	.-2106   	; 0x2b6 <desativarSerialInterrupt>
     af0:	4d db       	rcall	.-2406   	; 0x18c <ativa_buzzer>
					ativa_buzzer();
     af2:	6c e3       	ldi	r22, 0x3C	; 60
     af4:	72 e0       	ldi	r23, 0x02	; 2
					if(strcmp(senha,senhas.intruso))//caso a senha seja do intruso, não mandamos  mais motivos para a central
     af6:	81 ed       	ldi	r24, 0xD1	; 209
     af8:	94 e0       	ldi	r25, 0x04	; 4
     afa:	54 d3       	rcall	.+1704   	; 0x11a4 <strcmp>
     afc:	89 2b       	or	r24, r25
     afe:	11 f0       	breq	.+4      	; 0xb04 <main+0xfa>
     b00:	92 db       	rcall	.-2268   	; 0x226 <enviaMotivo>
     b02:	01 c0       	rjmp	.+2      	; 0xb06 <main+0xfc>
					{
						enviaMotivo();
     b04:	24 df       	rcall	.-440    	; 0x94e <telaInicio>
     b06:	e1 ec       	ldi	r30, 0xC1	; 193
     b08:	f0 e0       	ldi	r31, 0x00	; 0
					}else
					{
						telaInicio();
     b0a:	80 81       	ld	r24, Z
					}
					UCSR0B &= ~(1 << RXEN0);
     b0c:	8f 7e       	andi	r24, 0xEF	; 239
     b0e:	80 83       	st	Z, r24
     b10:	80 81       	ld	r24, Z
     b12:	80 61       	ori	r24, 0x10	; 16
     b14:	80 83       	st	Z, r24
					UCSR0B |= (1 << RXEN0);
     b16:	c9 db       	rcall	.-2158   	; 0x2aa <ativarSerialInterrupt>
     b18:	8f e0       	ldi	r24, 0x0F	; 15
					ativarSerialInterrupt();
     b1a:	80 93 08 01 	sts	0x0108, r24	; 0x800108 <__TEXT_REGION_LENGTH__+0x7c0108>
					PORTK = 0b00001111;
     b1e:	81 e0       	ldi	r24, 0x01	; 1
     b20:	80 93 23 02 	sts	0x0223, r24	; 0x800223 <esperaAlarme>
				}
				esperaAlarme = 1;
     b24:	80 91 e5 04 	lds	r24, 0x04E5	; 0x8004e5 <admLogin>
     b28:	81 30       	cpi	r24, 0x01	; 1
			}
			
			if (admLogin == 1){//caso o estado da variavel admLogin for 1, entramos na subrotina do administrador, essa variaável é mutada em validacao_senhas
     b2a:	09 f0       	breq	.+2      	; 0xb2e <main+0x124>
     b2c:	8a cf       	rjmp	.-236    	; 0xa42 <main+0x38>
     b2e:	27 dc       	rcall	.-1970   	; 0x37e <subRotinaAdm>
     b30:	8f e0       	ldi	r24, 0x0F	; 15
     b32:	80 93 6d 00 	sts	0x006D, r24	; 0x80006d <__TEXT_REGION_LENGTH__+0x7c006d>
				subRotinaAdm();
     b36:	80 93 08 01 	sts	0x0108, r24	; 0x800108 <__TEXT_REGION_LENGTH__+0x7c0108>
				PCMSK2 = 0x0F;
     b3a:	10 92 e5 04 	sts	0x04E5, r1	; 0x8004e5 <admLogin>
				PORTK = 0b00001111;
     b3e:	07 df       	rcall	.-498    	; 0x94e <telaInicio>
     b40:	80 cf       	rjmp	.-256    	; 0xa42 <main+0x38>

00000b42 <__vector_11>:
				admLogin = 0;
     b42:	1f 92       	push	r1
     b44:	0f 92       	push	r0
				telaInicio();
     b46:	0f b6       	in	r0, 0x3f	; 63
     b48:	0f 92       	push	r0
     b4a:	11 24       	eor	r1, r1
			}
		}	
		 //fechamento do while
}
	
ISR(PCINT2_vect){ //pinos K0 até K4
     b4c:	0b b6       	in	r0, 0x3b	; 59
     b4e:	0f 92       	push	r0
     b50:	2f 93       	push	r18
     b52:	3f 93       	push	r19
     b54:	4f 93       	push	r20
     b56:	5f 93       	push	r21
     b58:	6f 93       	push	r22
     b5a:	7f 93       	push	r23
     b5c:	8f 93       	push	r24
     b5e:	9f 93       	push	r25
     b60:	af 93       	push	r26
     b62:	bf 93       	push	r27
     b64:	ef 93       	push	r30
     b66:	ff 93       	push	r31
	PORTB = 0; 
     b68:	15 b8       	out	0x05, r1	; 5
	if(chamada == 0){//caso a senha seja para desligar o alarme
     b6a:	80 91 c0 04 	lds	r24, 0x04C0	; 0x8004c0 <__data_end>
     b6e:	81 11       	cpse	r24, r1
     b70:	6b c0       	rjmp	.+214    	; 0xc48 <__vector_11+0x106>
		chamada = 1;
     b72:	81 e0       	ldi	r24, 0x01	; 1
     b74:	80 93 c0 04 	sts	0x04C0, r24	; 0x8004c0 <__data_end>
		tecla = procuraTecla();
     b78:	7a dd       	rcall	.-1292   	; 0x66e <procuraTecla>
     b7a:	80 93 e3 04 	sts	0x04E3, r24	; 0x8004e3 <tecla>
		if(alarme_ativo){
     b7e:	90 91 c2 04 	lds	r25, 0x04C2	; 0x8004c2 <alarme_ativo>
     b82:	99 23       	and	r25, r25
     b84:	69 f1       	breq	.+90     	; 0xbe0 <__vector_11+0x9e>
			if ((tecla == 'A') || (tecla == 'B') || (tecla == 'C') || (tecla == 'D')){//nesses digitos, o significado é que um sensor foi ativado 
     b86:	81 54       	subi	r24, 0x41	; 65
     b88:	84 30       	cpi	r24, 0x04	; 4
				telaSensorAtivado();
     b8a:	20 f4       	brcc	.+8      	; 0xb94 <__vector_11+0x52>
     b8c:	e9 de       	rcall	.-558    	; 0x960 <telaSensorAtivado>
				intruso_detectado = 1;
     b8e:	81 e0       	ldi	r24, 0x01	; 1
     b90:	80 93 c1 04 	sts	0x04C1, r24	; 0x8004c1 <intruso_detectado>
			}
			if ((tecla == '1') || (tecla == '2') || (tecla == '3') || (tecla == '4') || (tecla == '5') || (tecla == '6') || (tecla == '7') || (tecla == '8') || (tecla == '9') || (tecla == '0')){
     b94:	80 91 e3 04 	lds	r24, 0x04E3	; 0x8004e3 <tecla>
     b98:	90 ed       	ldi	r25, 0xD0	; 208
     b9a:	98 0f       	add	r25, r24
     b9c:	9a 30       	cpi	r25, 0x0A	; 10
     b9e:	08 f0       	brcs	.+2      	; 0xba2 <__vector_11+0x60>
     ba0:	51 c0       	rjmp	.+162    	; 0xc44 <__vector_11+0x102>
				if(nr_digitados < 5){//digitos numericos somam para resultar em uma senha
     ba2:	20 91 d7 04 	lds	r18, 0x04D7	; 0x8004d7 <nr_digitados>
     ba6:	30 91 d8 04 	lds	r19, 0x04D8	; 0x8004d8 <nr_digitados+0x1>
     baa:	25 30       	cpi	r18, 0x05	; 5
     bac:	31 05       	cpc	r19, r1
					lendo_senha(tecla);
     bae:	0c f4       	brge	.+2      	; 0xbb2 <__vector_11+0x70>
     bb0:	ff d1       	rcall	.+1022   	; 0xfb0 <lendo_senha>
				}
				if(nr_digitados == 5){//caso a senha tenha sido digitada por inteiro, vamos conferir seu resultado
     bb2:	80 91 d7 04 	lds	r24, 0x04D7	; 0x8004d7 <nr_digitados>
     bb6:	90 91 d8 04 	lds	r25, 0x04D8	; 0x8004d8 <nr_digitados+0x1>
     bba:	05 97       	sbiw	r24, 0x05	; 5
     bbc:	09 f0       	breq	.+2      	; 0xbc0 <__vector_11+0x7e>
					if (resultado_validacao() == 1){
     bbe:	42 c0       	rjmp	.+132    	; 0xc44 <__vector_11+0x102>
     bc0:	a7 d2       	rcall	.+1358   	; 0x1110 <resultado_validacao>
     bc2:	01 97       	sbiw	r24, 0x01	; 1
     bc4:	09 f0       	breq	.+2      	; 0xbc8 <__vector_11+0x86>
     bc6:	3e c0       	rjmp	.+124    	; 0xc44 <__vector_11+0x102>
						alarme_ativo = 0;
     bc8:	10 92 c2 04 	sts	0x04C2, r1	; 0x8004c2 <alarme_ativo>
						intruso_detectado = 0;
     bcc:	10 92 c1 04 	sts	0x04C1, r1	; 0x8004c1 <intruso_detectado>
						telaAlarmeOff();
     bd0:	d0 de       	rcall	.-608    	; 0x972 <telaAlarmeOff>
						delay_1s();
     bd2:	d0 d1       	rcall	.+928    	; 0xf74 <delay_1s>
						if(esperaAlarme)
     bd4:	80 91 23 02 	lds	r24, 0x0223	; 0x800223 <esperaAlarme>
     bd8:	88 23       	and	r24, r24
     bda:	a1 f1       	breq	.+104    	; 0xc44 <__vector_11+0x102>
							telaInicio();
     bdc:	b8 de       	rcall	.-656    	; 0x94e <telaInicio>
     bde:	32 c0       	rjmp	.+100    	; 0xc44 <__vector_11+0x102>
     be0:	90 ed       	ldi	r25, 0xD0	; 208
						}
				}
			}
		}else if ((tecla == '1') || (tecla == '2') || (tecla == '3') || (tecla == '4') || (tecla == '5') || (tecla == '6') || (tecla == '7') || (tecla == '8') || (tecla == '9') || (tecla == '0')){
     be2:	98 0f       	add	r25, r24
     be4:	9a 30       	cpi	r25, 0x0A	; 10
     be6:	70 f5       	brcc	.+92     	; 0xc44 <__vector_11+0x102>
     be8:	20 91 d7 04 	lds	r18, 0x04D7	; 0x8004d7 <nr_digitados>
		if(nr_digitados < 5){//caso a senha seja para desligar o alarme// digitos numericos somam para resultar em uma senha
     bec:	30 91 d8 04 	lds	r19, 0x04D8	; 0x8004d8 <nr_digitados+0x1>
     bf0:	25 30       	cpi	r18, 0x05	; 5
     bf2:	31 05       	cpc	r19, r1
     bf4:	0c f4       	brge	.+2      	; 0xbf8 <__vector_11+0xb6>
			lendo_senha(tecla);
     bf6:	dc d1       	rcall	.+952    	; 0xfb0 <lendo_senha>
		}
		if(nr_digitados == 5){//caso a senha tenha sido digitada por inteiro, vamos conferir seu resultado
     bf8:	80 91 d7 04 	lds	r24, 0x04D7	; 0x8004d7 <nr_digitados>
     bfc:	90 91 d8 04 	lds	r25, 0x04D8	; 0x8004d8 <nr_digitados+0x1>
     c00:	05 97       	sbiw	r24, 0x05	; 5
     c02:	01 f5       	brne	.+64     	; 0xc44 <__vector_11+0x102>
			char result_val = resultado_validacao();
     c04:	85 d2       	rcall	.+1290   	; 0x1110 <resultado_validacao>
			if (result_val == 1 && strcmp(validacao,"central")){
     c06:	81 30       	cpi	r24, 0x01	; 1
     c08:	99 f4       	brne	.+38     	; 0xc30 <__vector_11+0xee>
     c0a:	65 e8       	ldi	r22, 0x85	; 133
     c0c:	74 e0       	ldi	r23, 0x04	; 4
     c0e:	80 91 e0 04 	lds	r24, 0x04E0	; 0x8004e0 <validacao>
     c12:	90 91 e1 04 	lds	r25, 0x04E1	; 0x8004e1 <validacao+0x1>
     c16:	c6 d2       	rcall	.+1420   	; 0x11a4 <strcmp>
     c18:	89 2b       	or	r24, r25
     c1a:	51 f0       	breq	.+20     	; 0xc30 <__vector_11+0xee>
				intruso_detectado = 0;
     c1c:	10 92 c1 04 	sts	0x04C1, r1	; 0x8004c1 <intruso_detectado>
				TCCR1B = 0x05; //timer 1 pra dar o delay ate ativar o alarme //ativa o alarme na interrupção do timer 1
     c20:	85 e0       	ldi	r24, 0x05	; 5
     c22:	80 93 81 00 	sts	0x0081, r24	; 0x800081 <__TEXT_REGION_LENGTH__+0x7c0081>
				TIMSK1 = 1;
     c26:	81 e0       	ldi	r24, 0x01	; 1
     c28:	80 93 6f 00 	sts	0x006F, r24	; 0x80006f <__TEXT_REGION_LENGTH__+0x7c006f>
				telaATivandoOSistema();
     c2c:	a7 de       	rcall	.-690    	; 0x97c <telaATivandoOSistema>
			}else if(!strcmp(validacao,"central"))
     c2e:	0a c0       	rjmp	.+20     	; 0xc44 <__vector_11+0x102>
     c30:	65 e8       	ldi	r22, 0x85	; 133
     c32:	74 e0       	ldi	r23, 0x04	; 4
     c34:	80 91 e0 04 	lds	r24, 0x04E0	; 0x8004e0 <validacao>
     c38:	90 91 e1 04 	lds	r25, 0x04E1	; 0x8004e1 <validacao+0x1>
     c3c:	b3 d2       	rcall	.+1382   	; 0x11a4 <strcmp>
     c3e:	89 2b       	or	r24, r25
     c40:	09 f4       	brne	.+2      	; 0xc44 <__vector_11+0x102>
			{
				telaInicio();
     c42:	85 de       	rcall	.-758    	; 0x94e <telaInicio>
     c44:	87 d1       	rcall	.+782    	; 0xf54 <delay_200ms>
			}
		}
	}
	delay_200ms();
     c46:	05 c0       	rjmp	.+10     	; 0xc52 <__vector_11+0x110>
     c48:	10 92 c0 04 	sts	0x04C0, r1	; 0x8004c0 <__data_end>
	}else{
		chamada = 0;
     c4c:	8f e0       	ldi	r24, 0x0F	; 15
     c4e:	80 93 08 01 	sts	0x0108, r24	; 0x800108 <__TEXT_REGION_LENGTH__+0x7c0108>
		PORTK = 0b00001111; //reseta a porta pra proxima leitura
     c52:	ff 91       	pop	r31
     c54:	ef 91       	pop	r30
	}
}
     c56:	bf 91       	pop	r27
     c58:	af 91       	pop	r26
     c5a:	9f 91       	pop	r25
     c5c:	8f 91       	pop	r24
     c5e:	7f 91       	pop	r23
     c60:	6f 91       	pop	r22
     c62:	5f 91       	pop	r21
     c64:	4f 91       	pop	r20
     c66:	3f 91       	pop	r19
     c68:	2f 91       	pop	r18
     c6a:	0f 90       	pop	r0
     c6c:	0b be       	out	0x3b, r0	; 59
     c6e:	0f 90       	pop	r0
     c70:	0f be       	out	0x3f, r0	; 63
     c72:	0f 90       	pop	r0
     c74:	1f 90       	pop	r1
     c76:	18 95       	reti

00000c78 <__vector_20>:
     c78:	1f 92       	push	r1
     c7a:	0f 92       	push	r0

ISR(TIMER1_OVF_vect){
     c7c:	0f b6       	in	r0, 0x3f	; 63
     c7e:	0f 92       	push	r0
     c80:	11 24       	eor	r1, r1
     c82:	0b b6       	in	r0, 0x3b	; 59
     c84:	0f 92       	push	r0
     c86:	2f 93       	push	r18
     c88:	3f 93       	push	r19
     c8a:	4f 93       	push	r20
     c8c:	5f 93       	push	r21
     c8e:	6f 93       	push	r22
     c90:	7f 93       	push	r23
     c92:	8f 93       	push	r24
     c94:	9f 93       	push	r25
     c96:	af 93       	push	r26
     c98:	bf 93       	push	r27
     c9a:	ef 93       	push	r30
     c9c:	ff 93       	push	r31
	if(nr_ciclos_timer1 == 5){ //mudar para 19 para o tempo de espera ficar em 1:20min, o numero esta menor para facilitar testes
     c9e:	80 91 cf 04 	lds	r24, 0x04CF	; 0x8004cf <nr_ciclos_timer1>
     ca2:	90 91 d0 04 	lds	r25, 0x04D0	; 0x8004d0 <nr_ciclos_timer1+0x1>
     ca6:	85 30       	cpi	r24, 0x05	; 5
     ca8:	91 05       	cpc	r25, r1
     caa:	71 f4       	brne	.+28     	; 0xcc8 <__vector_20+0x50>
		//ativa_alarme
		telaAlarmeAtivo();
     cac:	7f de       	rcall	.-770    	; 0x9ac <telaAlarmeAtivo>
		alarme_ativo = 1;
     cae:	81 e0       	ldi	r24, 0x01	; 1
     cb0:	80 93 c2 04 	sts	0x04C2, r24	; 0x8004c2 <alarme_ativo>
		//desliga timer
		TCCR1B = 0x00;
     cb4:	10 92 81 00 	sts	0x0081, r1	; 0x800081 <__TEXT_REGION_LENGTH__+0x7c0081>
		TIMSK1 = 0x00;
     cb8:	10 92 6f 00 	sts	0x006F, r1	; 0x80006f <__TEXT_REGION_LENGTH__+0x7c006f>
		//limpa flag
		TIFR1 = 1;
     cbc:	86 bb       	out	0x16, r24	; 22
		nr_ciclos_timer1 = 0;
     cbe:	10 92 d0 04 	sts	0x04D0, r1	; 0x8004d0 <nr_ciclos_timer1+0x1>
     cc2:	10 92 cf 04 	sts	0x04CF, r1	; 0x8004cf <nr_ciclos_timer1>
     cc6:	05 c0       	rjmp	.+10     	; 0xcd2 <__vector_20+0x5a>
		}else{
		nr_ciclos_timer1++;
     cc8:	01 96       	adiw	r24, 0x01	; 1
     cca:	90 93 d0 04 	sts	0x04D0, r25	; 0x8004d0 <nr_ciclos_timer1+0x1>
     cce:	80 93 cf 04 	sts	0x04CF, r24	; 0x8004cf <nr_ciclos_timer1>
	}
}
     cd2:	ff 91       	pop	r31
     cd4:	ef 91       	pop	r30
     cd6:	bf 91       	pop	r27
     cd8:	af 91       	pop	r26
     cda:	9f 91       	pop	r25
     cdc:	8f 91       	pop	r24
     cde:	7f 91       	pop	r23
     ce0:	6f 91       	pop	r22
     ce2:	5f 91       	pop	r21
     ce4:	4f 91       	pop	r20
     ce6:	3f 91       	pop	r19
     ce8:	2f 91       	pop	r18
     cea:	0f 90       	pop	r0
     cec:	0b be       	out	0x3b, r0	; 59
     cee:	0f 90       	pop	r0
     cf0:	0f be       	out	0x3f, r0	; 63
     cf2:	0f 90       	pop	r0
     cf4:	1f 90       	pop	r1
     cf6:	18 95       	reti

00000cf8 <__vector_35>:

ISR(TIMER3_OVF_vect){
     cf8:	1f 92       	push	r1
     cfa:	0f 92       	push	r0
     cfc:	0f b6       	in	r0, 0x3f	; 63
     cfe:	0f 92       	push	r0
     d00:	11 24       	eor	r1, r1
     d02:	0b b6       	in	r0, 0x3b	; 59
     d04:	0f 92       	push	r0
     d06:	2f 93       	push	r18
     d08:	3f 93       	push	r19
     d0a:	4f 93       	push	r20
     d0c:	5f 93       	push	r21
     d0e:	6f 93       	push	r22
     d10:	7f 93       	push	r23
     d12:	8f 93       	push	r24
     d14:	9f 93       	push	r25
     d16:	af 93       	push	r26
     d18:	bf 93       	push	r27
     d1a:	ef 93       	push	r30
     d1c:	ff 93       	push	r31
	if (nr_ciclos_relogio == 13){//14-1
     d1e:	80 91 c8 04 	lds	r24, 0x04C8	; 0x8004c8 <nr_ciclos_relogio>
     d22:	90 91 c9 04 	lds	r25, 0x04C9	; 0x8004c9 <nr_ciclos_relogio+0x1>
     d26:	8d 30       	cpi	r24, 0x0D	; 13
     d28:	91 05       	cpc	r25, r1
     d2a:	59 f4       	brne	.+22     	; 0xd42 <__vector_35+0x4a>
		nr_ciclos_relogio=0;
     d2c:	10 92 c9 04 	sts	0x04C9, r1	; 0x8004c9 <nr_ciclos_relogio+0x1>
     d30:	10 92 c8 04 	sts	0x04C8, r1	; 0x8004c8 <nr_ciclos_relogio>
		min++;
     d34:	80 91 ca 04 	lds	r24, 0x04CA	; 0x8004ca <min>
     d38:	8f 5f       	subi	r24, 0xFF	; 255
     d3a:	80 93 ca 04 	sts	0x04CA, r24	; 0x8004ca <min>
		conversaoMinHr();//convertemos a soma de minutos em horas e dias
     d3e:	ac d0       	rcall	.+344    	; 0xe98 <conversaoMinHr>
     d40:	05 c0       	rjmp	.+10     	; 0xd4c <__vector_35+0x54>
	}else{
		nr_ciclos_relogio++;
     d42:	01 96       	adiw	r24, 0x01	; 1
     d44:	90 93 c9 04 	sts	0x04C9, r25	; 0x8004c9 <nr_ciclos_relogio+0x1>
     d48:	80 93 c8 04 	sts	0x04C8, r24	; 0x8004c8 <nr_ciclos_relogio>
	}
}
     d4c:	ff 91       	pop	r31
     d4e:	ef 91       	pop	r30
     d50:	bf 91       	pop	r27
     d52:	af 91       	pop	r26
     d54:	9f 91       	pop	r25
     d56:	8f 91       	pop	r24
     d58:	7f 91       	pop	r23
     d5a:	6f 91       	pop	r22
     d5c:	5f 91       	pop	r21
     d5e:	4f 91       	pop	r20
     d60:	3f 91       	pop	r19
     d62:	2f 91       	pop	r18
     d64:	0f 90       	pop	r0
     d66:	0b be       	out	0x3b, r0	; 59
     d68:	0f 90       	pop	r0
     d6a:	0f be       	out	0x3f, r0	; 63
     d6c:	0f 90       	pop	r0
     d6e:	1f 90       	pop	r1
     d70:	18 95       	reti

00000d72 <__vector_25>:

ISR(USART0_RX_vect)//recepção serial 
{
     d72:	1f 92       	push	r1
     d74:	0f 92       	push	r0
     d76:	0f b6       	in	r0, 0x3f	; 63
     d78:	0f 92       	push	r0
     d7a:	11 24       	eor	r1, r1
     d7c:	0b b6       	in	r0, 0x3b	; 59
     d7e:	0f 92       	push	r0
     d80:	1f 93       	push	r17
     d82:	2f 93       	push	r18
     d84:	3f 93       	push	r19
     d86:	4f 93       	push	r20
     d88:	5f 93       	push	r21
     d8a:	6f 93       	push	r22
     d8c:	7f 93       	push	r23
     d8e:	8f 93       	push	r24
     d90:	9f 93       	push	r25
     d92:	af 93       	push	r26
     d94:	bf 93       	push	r27
     d96:	cf 93       	push	r28
     d98:	df 93       	push	r29
     d9a:	ef 93       	push	r30
     d9c:	ff 93       	push	r31
	uint8_t c;
	while ((c = receberByteSerial()) == 'S');//a variável c sai do while com o segundo digito da mensagem mandada pelo professor 
     d9e:	b2 da       	rcall	.-2716   	; 0x304 <receberByteSerial>
     da0:	83 35       	cpi	r24, 0x53	; 83
     da2:	e9 f3       	breq	.-6      	; 0xd9e <__vector_25+0x2c>
	if (c == 'H') {//caso 'H', estamos recebendo horário
     da4:	88 34       	cpi	r24, 0x48	; 72
		// Sincroniza  o de hor rio.
		c = receberByteSerial(); // Dia.
     da6:	d1 f4       	brne	.+52     	; 0xddc <__vector_25+0x6a>
     da8:	ad da       	rcall	.-2726   	; 0x304 <receberByteSerial>
		uint8_t c2 = receberByteSerial(); // Hora.
     daa:	18 2f       	mov	r17, r24
     dac:	ab da       	rcall	.-2730   	; 0x304 <receberByteSerial>
		uint8_t c3 = receberByteSerial(); // Minuto.
     dae:	d8 2f       	mov	r29, r24
     db0:	a9 da       	rcall	.-2734   	; 0x304 <receberByteSerial>
     db2:	c8 2f       	mov	r28, r24
		configRelogio();
     db4:	63 d0       	rcall	.+198    	; 0xe7c <configRelogio>
     db6:	10 93 cc 04 	sts	0x04CC, r17	; 0x8004cc <dia>
		//send_data(c2);
		dia = c;
     dba:	d0 93 cb 04 	sts	0x04CB, r29	; 0x8004cb <hora>
		hora = c2;
     dbe:	c0 93 ca 04 	sts	0x04CA, r28	; 0x8004ca <min>
		min = c3;
     dc2:	80 91 c6 04 	lds	r24, 0x04C6	; 0x8004c6 <pediHorario>
		
		// Resposta de confirma  o.
		if(!pediHorario){
     dc6:	90 91 c7 04 	lds	r25, 0x04C7	; 0x8004c7 <pediHorario+0x1>
     dca:	89 2b       	or	r24, r25
     dcc:	19 f4       	brne	.+6      	; 0xdd4 <__vector_25+0x62>
			enviarStringSerial("AH");//menagem confirmação recebimento
     dce:	80 e8       	ldi	r24, 0x80	; 128
     dd0:	92 e0       	ldi	r25, 0x02	; 2
     dd2:	9e da       	rcall	.-2756   	; 0x310 <enviarStringSerial>
     dd4:	10 92 c7 04 	sts	0x04C7, r1	; 0x8004c7 <pediHorario+0x1>
		}
		pediHorario = 0;
     dd8:	10 92 c6 04 	sts	0x04C6, r1	; 0x8004c6 <pediHorario>
     ddc:	ff 91       	pop	r31
		
	}
	else if (c == 'S' || c == 'M') {//caso de confirmação da central que as mensgens do alarme foram recebidas 
		// confirmacao de mensagem recebida
	}
}
     dde:	ef 91       	pop	r30
     de0:	df 91       	pop	r29
     de2:	cf 91       	pop	r28
     de4:	bf 91       	pop	r27
     de6:	af 91       	pop	r26
     de8:	9f 91       	pop	r25
     dea:	8f 91       	pop	r24
     dec:	7f 91       	pop	r23
     dee:	6f 91       	pop	r22
     df0:	5f 91       	pop	r21
     df2:	4f 91       	pop	r20
     df4:	3f 91       	pop	r19
     df6:	2f 91       	pop	r18
     df8:	1f 91       	pop	r17
     dfa:	0f 90       	pop	r0
     dfc:	0b be       	out	0x3b, r0	; 59
     dfe:	0f 90       	pop	r0
     e00:	0f be       	out	0x3f, r0	; 63
     e02:	0f 90       	pop	r0
     e04:	1f 90       	pop	r1
     e06:	18 95       	reti

00000e08 <__vector_45>:
     e08:	1f 92       	push	r1

ISR(TIMER4_OVF_vect){
     e0a:	0f 92       	push	r0
     e0c:	0f b6       	in	r0, 0x3f	; 63
     e0e:	0f 92       	push	r0
     e10:	11 24       	eor	r1, r1
     e12:	0b b6       	in	r0, 0x3b	; 59
     e14:	0f 92       	push	r0
     e16:	2f 93       	push	r18
     e18:	3f 93       	push	r19
     e1a:	4f 93       	push	r20
     e1c:	5f 93       	push	r21
     e1e:	6f 93       	push	r22
     e20:	7f 93       	push	r23
     e22:	8f 93       	push	r24
     e24:	9f 93       	push	r25
     e26:	af 93       	push	r26
     e28:	bf 93       	push	r27
     e2a:	ef 93       	push	r30
     e2c:	ff 93       	push	r31
	if (nr_ciclos_ok == 3){
     e2e:	80 91 cd 04 	lds	r24, 0x04CD	; 0x8004cd <nr_ciclos_ok>
     e32:	90 91 ce 04 	lds	r25, 0x04CE	; 0x8004ce <nr_ciclos_ok+0x1>
     e36:	83 30       	cpi	r24, 0x03	; 3
     e38:	91 05       	cpc	r25, r1
     e3a:	41 f4       	brne	.+16     	; 0xe4c <__vector_45+0x44>
		nr_ciclos_ok=0;
     e3c:	10 92 ce 04 	sts	0x04CE, r1	; 0x8004ce <nr_ciclos_ok+0x1>
     e40:	10 92 cd 04 	sts	0x04CD, r1	; 0x8004cd <nr_ciclos_ok>
		enviarStringSerial("AO"); //envia OK periodicamente 
     e44:	8e ea       	ldi	r24, 0xAE	; 174
     e46:	93 e0       	ldi	r25, 0x03	; 3
     e48:	63 da       	rcall	.-2874   	; 0x310 <enviarStringSerial>
     e4a:	05 c0       	rjmp	.+10     	; 0xe56 <__vector_45+0x4e>
		}else{
		nr_ciclos_ok++;
     e4c:	01 96       	adiw	r24, 0x01	; 1
     e4e:	90 93 ce 04 	sts	0x04CE, r25	; 0x8004ce <nr_ciclos_ok+0x1>
     e52:	80 93 cd 04 	sts	0x04CD, r24	; 0x8004cd <nr_ciclos_ok>
	}
     e56:	ff 91       	pop	r31
     e58:	ef 91       	pop	r30
     e5a:	bf 91       	pop	r27
     e5c:	af 91       	pop	r26
     e5e:	9f 91       	pop	r25
     e60:	8f 91       	pop	r24
     e62:	7f 91       	pop	r23
     e64:	6f 91       	pop	r22
     e66:	5f 91       	pop	r21
     e68:	4f 91       	pop	r20
     e6a:	3f 91       	pop	r19
     e6c:	2f 91       	pop	r18
     e6e:	0f 90       	pop	r0
     e70:	0b be       	out	0x3b, r0	; 59
     e72:	0f 90       	pop	r0
     e74:	0f be       	out	0x3f, r0	; 63
     e76:	0f 90       	pop	r0
     e78:	1f 90       	pop	r1
     e7a:	18 95       	reti

00000e7c <configRelogio>:
uint8_t hora = 0;
uint8_t min = 0;
int nr_ciclos_relogio = 0; //vai ate 64

void configRelogio(){
	sei();
     e7c:	78 94       	sei
	TCCR3A = 0; //modo normal
     e7e:	10 92 90 00 	sts	0x0090, r1	; 0x800090 <__TEXT_REGION_LENGTH__+0x7c0090>
	TCCR3B = 0x5; //prescaler de 1024
     e82:	85 e0       	ldi	r24, 0x05	; 5
     e84:	80 93 91 00 	sts	0x0091, r24	; 0x800091 <__TEXT_REGION_LENGTH__+0x7c0091>
	TCNT3 = 0; //como o processador tem 16Mhz e o timer tem 16bits, precisamos de 4000000 contagens p bater meio periodo da onda de 2hz. 4000000/64 = 62500
     e88:	10 92 95 00 	sts	0x0095, r1	; 0x800095 <__TEXT_REGION_LENGTH__+0x7c0095>
     e8c:	10 92 94 00 	sts	0x0094, r1	; 0x800094 <__TEXT_REGION_LENGTH__+0x7c0094>
	TIMSK3 = 1;
     e90:	81 e0       	ldi	r24, 0x01	; 1
     e92:	80 93 71 00 	sts	0x0071, r24	; 0x800071 <__TEXT_REGION_LENGTH__+0x7c0071>
     e96:	08 95       	ret

00000e98 <conversaoMinHr>:
}

void conversaoMinHr(){
	if (min == 60){//incremeta dia, hora e minuto de acordo com a contagem dos minutos
     e98:	80 91 ca 04 	lds	r24, 0x04CA	; 0x8004ca <min>
     e9c:	8c 33       	cpi	r24, 0x3C	; 60
     e9e:	39 f4       	brne	.+14     	; 0xeae <conversaoMinHr+0x16>
		hora++;
     ea0:	80 91 cb 04 	lds	r24, 0x04CB	; 0x8004cb <hora>
     ea4:	8f 5f       	subi	r24, 0xFF	; 255
     ea6:	80 93 cb 04 	sts	0x04CB, r24	; 0x8004cb <hora>
		min = 0;
     eaa:	10 92 ca 04 	sts	0x04CA, r1	; 0x8004ca <min>
	}
	if (hora == 24){
     eae:	80 91 cb 04 	lds	r24, 0x04CB	; 0x8004cb <hora>
     eb2:	88 31       	cpi	r24, 0x18	; 24
     eb4:	49 f4       	brne	.+18     	; 0xec8 <conversaoMinHr+0x30>
		dia++;
     eb6:	80 91 cc 04 	lds	r24, 0x04CC	; 0x8004cc <dia>
     eba:	8f 5f       	subi	r24, 0xFF	; 255
     ebc:	80 93 cc 04 	sts	0x04CC, r24	; 0x8004cc <dia>
		hora = 0;
     ec0:	10 92 cb 04 	sts	0x04CB, r1	; 0x8004cb <hora>
		min = 0;
     ec4:	10 92 ca 04 	sts	0x04CA, r1	; 0x8004ca <min>
	}
	if (dia == 32){//no caso desse mes tem 31 dias, ogo botamos 32
     ec8:	80 91 cc 04 	lds	r24, 0x04CC	; 0x8004cc <dia>
     ecc:	80 32       	cpi	r24, 0x20	; 32
     ece:	31 f4       	brne	.+12     	; 0xedc <conversaoMinHr+0x44>
		dia = 0;
     ed0:	10 92 cc 04 	sts	0x04CC, r1	; 0x8004cc <dia>
		hora = 0;
     ed4:	10 92 cb 04 	sts	0x04CB, r1	; 0x8004cb <hora>
		min = 0;
     ed8:	10 92 ca 04 	sts	0x04CA, r1	; 0x8004ca <min>
	}
	modoNoturno();
     edc:	70 cd       	rjmp	.-1312   	; 0x9be <modoNoturno>
     ede:	08 95       	ret

00000ee0 <config_timer1>:
	TCCR5A = 0; // Modo normal
	TCCR5B = 0x4; // Prescaler de 256
	TCNT5 = 65024;
	TIFR5 = (1<<0); //limpa flag
	while((TIFR5 & (1<<0)) == 0); //espera overflow
}
     ee0:	78 94       	sei
     ee2:	10 92 80 00 	sts	0x0080, r1	; 0x800080 <__TEXT_REGION_LENGTH__+0x7c0080>
     ee6:	10 92 85 00 	sts	0x0085, r1	; 0x800085 <__TEXT_REGION_LENGTH__+0x7c0085>
     eea:	10 92 84 00 	sts	0x0084, r1	; 0x800084 <__TEXT_REGION_LENGTH__+0x7c0084>
     eee:	81 e0       	ldi	r24, 0x01	; 1
     ef0:	80 93 6f 00 	sts	0x006F, r24	; 0x80006f <__TEXT_REGION_LENGTH__+0x7c006f>
     ef4:	86 bb       	out	0x16, r24	; 22
     ef6:	08 95       	ret

00000ef8 <onda_800hz>:
     ef8:	10 92 20 01 	sts	0x0120, r1	; 0x800120 <__TEXT_REGION_LENGTH__+0x7c0120>
     efc:	81 e0       	ldi	r24, 0x01	; 1
     efe:	80 93 21 01 	sts	0x0121, r24	; 0x800121 <__TEXT_REGION_LENGTH__+0x7c0121>
     f02:	20 ef       	ldi	r18, 0xF0	; 240
     f04:	38 ed       	ldi	r19, 0xD8	; 216
     f06:	30 93 25 01 	sts	0x0125, r19	; 0x800125 <__TEXT_REGION_LENGTH__+0x7c0125>
     f0a:	20 93 24 01 	sts	0x0124, r18	; 0x800124 <__TEXT_REGION_LENGTH__+0x7c0124>
     f0e:	8a bb       	out	0x1a, r24	; 26
     f10:	d0 9b       	sbis	0x1a, 0	; 26
     f12:	fe cf       	rjmp	.-4      	; 0xf10 <onda_800hz+0x18>
     f14:	08 95       	ret

00000f16 <onda_400hz>:
     f16:	10 92 20 01 	sts	0x0120, r1	; 0x800120 <__TEXT_REGION_LENGTH__+0x7c0120>
     f1a:	81 e0       	ldi	r24, 0x01	; 1
     f1c:	80 93 21 01 	sts	0x0121, r24	; 0x800121 <__TEXT_REGION_LENGTH__+0x7c0121>
     f20:	20 ee       	ldi	r18, 0xE0	; 224
     f22:	31 eb       	ldi	r19, 0xB1	; 177
     f24:	30 93 25 01 	sts	0x0125, r19	; 0x800125 <__TEXT_REGION_LENGTH__+0x7c0125>
     f28:	20 93 24 01 	sts	0x0124, r18	; 0x800124 <__TEXT_REGION_LENGTH__+0x7c0124>
     f2c:	8a bb       	out	0x1a, r24	; 26
     f2e:	d0 9b       	sbis	0x1a, 0	; 26
     f30:	fe cf       	rjmp	.-4      	; 0xf2e <onda_400hz+0x18>
     f32:	08 95       	ret

00000f34 <delay_250ms>:
     f34:	10 92 20 01 	sts	0x0120, r1	; 0x800120 <__TEXT_REGION_LENGTH__+0x7c0120>
     f38:	83 e0       	ldi	r24, 0x03	; 3
     f3a:	80 93 21 01 	sts	0x0121, r24	; 0x800121 <__TEXT_REGION_LENGTH__+0x7c0121>
     f3e:	8c ed       	ldi	r24, 0xDC	; 220
     f40:	9b e0       	ldi	r25, 0x0B	; 11
     f42:	90 93 25 01 	sts	0x0125, r25	; 0x800125 <__TEXT_REGION_LENGTH__+0x7c0125>
     f46:	80 93 24 01 	sts	0x0124, r24	; 0x800124 <__TEXT_REGION_LENGTH__+0x7c0124>
     f4a:	81 e0       	ldi	r24, 0x01	; 1
     f4c:	8a bb       	out	0x1a, r24	; 26
     f4e:	d0 9b       	sbis	0x1a, 0	; 26
     f50:	fe cf       	rjmp	.-4      	; 0xf4e <delay_250ms+0x1a>
     f52:	08 95       	ret

00000f54 <delay_200ms>:
     f54:	10 92 20 01 	sts	0x0120, r1	; 0x800120 <__TEXT_REGION_LENGTH__+0x7c0120>
     f58:	83 e0       	ldi	r24, 0x03	; 3
     f5a:	80 93 21 01 	sts	0x0121, r24	; 0x800121 <__TEXT_REGION_LENGTH__+0x7c0121>
     f5e:	80 eb       	ldi	r24, 0xB0	; 176
     f60:	9c e3       	ldi	r25, 0x3C	; 60
     f62:	90 93 25 01 	sts	0x0125, r25	; 0x800125 <__TEXT_REGION_LENGTH__+0x7c0125>
     f66:	80 93 24 01 	sts	0x0124, r24	; 0x800124 <__TEXT_REGION_LENGTH__+0x7c0124>
     f6a:	81 e0       	ldi	r24, 0x01	; 1
     f6c:	8a bb       	out	0x1a, r24	; 26
     f6e:	d0 9b       	sbis	0x1a, 0	; 26
     f70:	fe cf       	rjmp	.-4      	; 0xf6e <delay_200ms+0x1a>
     f72:	08 95       	ret

00000f74 <delay_1s>:
     f74:	10 92 20 01 	sts	0x0120, r1	; 0x800120 <__TEXT_REGION_LENGTH__+0x7c0120>
     f78:	84 e0       	ldi	r24, 0x04	; 4
     f7a:	80 93 21 01 	sts	0x0121, r24	; 0x800121 <__TEXT_REGION_LENGTH__+0x7c0121>
     f7e:	8c ed       	ldi	r24, 0xDC	; 220
     f80:	9b e0       	ldi	r25, 0x0B	; 11
     f82:	90 93 25 01 	sts	0x0125, r25	; 0x800125 <__TEXT_REGION_LENGTH__+0x7c0125>
     f86:	80 93 24 01 	sts	0x0124, r24	; 0x800124 <__TEXT_REGION_LENGTH__+0x7c0124>
     f8a:	81 e0       	ldi	r24, 0x01	; 1
     f8c:	8a bb       	out	0x1a, r24	; 26
     f8e:	d0 9b       	sbis	0x1a, 0	; 26
     f90:	fe cf       	rjmp	.-4      	; 0xf8e <delay_1s+0x1a>
     f92:	08 95       	ret

00000f94 <config_timer_ok>:

void config_timer_ok(){
	sei();
     f94:	78 94       	sei
	TCCR4A = 0; //modo normal
     f96:	10 92 a0 00 	sts	0x00A0, r1	; 0x8000a0 <__TEXT_REGION_LENGTH__+0x7c00a0>
	TCCR4B = 0x5; //prescaler de 1024
     f9a:	85 e0       	ldi	r24, 0x05	; 5
     f9c:	80 93 a1 00 	sts	0x00A1, r24	; 0x8000a1 <__TEXT_REGION_LENGTH__+0x7c00a1>
	TCNT4 = 0; //como o processador tem 16Mhz e o timer tem 16bits, precisamos de 4000000 contagens p bater meio periodo da onda de 2hz. 4000000/64 = 62500
     fa0:	10 92 a5 00 	sts	0x00A5, r1	; 0x8000a5 <__TEXT_REGION_LENGTH__+0x7c00a5>
     fa4:	10 92 a4 00 	sts	0x00A4, r1	; 0x8000a4 <__TEXT_REGION_LENGTH__+0x7c00a4>
	TIMSK4 = 1;
     fa8:	81 e0       	ldi	r24, 0x01	; 1
     faa:	80 93 72 00 	sts	0x0072, r24	; 0x800072 <__TEXT_REGION_LENGTH__+0x7c0072>
     fae:	08 95       	ret

00000fb0 <lendo_senha>:
Senhas senhas = {"89134", "12369","32190","01267","90171", "89134", "12369","32190","01267","90171"};


void lendo_senha(char tecla){
			
	senha[nr_digitados] = tecla;
     fb0:	e0 91 d7 04 	lds	r30, 0x04D7	; 0x8004d7 <nr_digitados>
     fb4:	f0 91 d8 04 	lds	r31, 0x04D8	; 0x8004d8 <nr_digitados+0x1>
     fb8:	ef 52       	subi	r30, 0x2F	; 47
     fba:	fb 4f       	sbci	r31, 0xFB	; 251
     fbc:	80 83       	st	Z, r24
			
	//envia asterisco
	send_data(0x2A);
     fbe:	8a e2       	ldi	r24, 0x2A	; 42
     fc0:	99 db       	rcall	.-2254   	; 0x6f4 <send_data>
	nr_digitados++;
     fc2:	80 91 d7 04 	lds	r24, 0x04D7	; 0x8004d7 <nr_digitados>
     fc6:	90 91 d8 04 	lds	r25, 0x04D8	; 0x8004d8 <nr_digitados+0x1>
     fca:	01 96       	adiw	r24, 0x01	; 1
     fcc:	90 93 d8 04 	sts	0x04D8, r25	; 0x8004d8 <nr_digitados+0x1>
     fd0:	80 93 d7 04 	sts	0x04D7, r24	; 0x8004d7 <nr_digitados>
     fd4:	08 95       	ret

00000fd6 <subRotinaTrocaSenha>:
	
}

const char* subRotinaTrocaSenha()
{
	PCMSK2 = 0x01;
     fd6:	81 e0       	ldi	r24, 0x01	; 1
     fd8:	80 93 6d 00 	sts	0x006D, r24	; 0x80006d <__TEXT_REGION_LENGTH__+0x7c006d>
	for (int i = 0; i < 5; i++) {//reseta a variável senha
     fdc:	80 e0       	ldi	r24, 0x00	; 0
     fde:	90 e0       	ldi	r25, 0x00	; 0
     fe0:	05 c0       	rjmp	.+10     	; 0xfec <subRotinaTrocaSenha+0x16>
		senha[i] = '\0';
     fe2:	fc 01       	movw	r30, r24
     fe4:	ef 52       	subi	r30, 0x2F	; 47
     fe6:	fb 4f       	sbci	r31, 0xFB	; 251
     fe8:	10 82       	st	Z, r1
}

const char* subRotinaTrocaSenha()
{
	PCMSK2 = 0x01;
	for (int i = 0; i < 5; i++) {//reseta a variável senha
     fea:	01 96       	adiw	r24, 0x01	; 1
     fec:	85 30       	cpi	r24, 0x05	; 5
     fee:	91 05       	cpc	r25, r1
     ff0:	c4 f3       	brlt	.-16     	; 0xfe2 <subRotinaTrocaSenha+0xc>
		senha[i] = '\0';
	}
	nr_digitados = 0;
     ff2:	10 92 d8 04 	sts	0x04D8, r1	; 0x8004d8 <nr_digitados+0x1>
     ff6:	10 92 d7 04 	sts	0x04D7, r1	; 0x8004d7 <nr_digitados>

	while(nr_digitados < 5)//le 5 digitos escritos pelo usuário
     ffa:	11 c0       	rjmp	.+34     	; 0x101e <__EEPROM_REGION_LENGTH__+0x1e>
	{
		if(nr_digitados < 5){
     ffc:	05 97       	sbiw	r24, 0x05	; 5
     ffe:	7c f4       	brge	.+30     	; 0x101e <__EEPROM_REGION_LENGTH__+0x1e>
			tecla = procuraTecla();
    1000:	36 db       	rcall	.-2452   	; 0x66e <procuraTecla>
    1002:	80 93 e3 04 	sts	0x04E3, r24	; 0x8004e3 <tecla>
			delay_200ms();
    1006:	a6 df       	rcall	.-180    	; 0xf54 <delay_200ms>
			delay_200ms();
    1008:	a5 df       	rcall	.-182    	; 0xf54 <delay_200ms>
    100a:	8f e0       	ldi	r24, 0x0F	; 15
			PORTK = 0b00001111;
    100c:	80 93 08 01 	sts	0x0108, r24	; 0x800108 <__TEXT_REGION_LENGTH__+0x7c0108>
    1010:	80 91 e3 04 	lds	r24, 0x04E3	; 0x8004e3 <tecla>
			if ((tecla == '1') || (tecla == '2') || (tecla == '3') || (tecla == '4') || (tecla == '5') || (tecla == '6') || (tecla == '7') || (tecla == '8') || (tecla == '9') || (tecla == '0'))// não permite digitos invalidos para a senha
    1014:	90 ed       	ldi	r25, 0xD0	; 208
    1016:	98 0f       	add	r25, r24
    1018:	9a 30       	cpi	r25, 0x0A	; 10
    101a:	08 f4       	brcc	.+2      	; 0x101e <__EEPROM_REGION_LENGTH__+0x1e>
			{
				lendo_senha(tecla);
    101c:	c9 df       	rcall	.-110    	; 0xfb0 <lendo_senha>
    101e:	80 91 d7 04 	lds	r24, 0x04D7	; 0x8004d7 <nr_digitados>
	for (int i = 0; i < 5; i++) {//reseta a variável senha
		senha[i] = '\0';
	}
	nr_digitados = 0;

	while(nr_digitados < 5)//le 5 digitos escritos pelo usuário
    1022:	90 91 d8 04 	lds	r25, 0x04D8	; 0x8004d8 <nr_digitados+0x1>
    1026:	85 30       	cpi	r24, 0x05	; 5
    1028:	91 05       	cpc	r25, r1
    102a:	44 f3       	brlt	.-48     	; 0xffc <subRotinaTrocaSenha+0x26>
    102c:	66 e3       	ldi	r22, 0x36	; 54
				lendo_senha(tecla);
			}
		}
	}

	if(strcmp(senha,senhas.adm) && strcmp(senha,senhas.central) && strcmp(senha,senhas.intruso) && strcmp(senha,senhas.usuario1) && strcmp(senha,senhas.usuario2))
    102e:	72 e0       	ldi	r23, 0x02	; 2
    1030:	81 ed       	ldi	r24, 0xD1	; 209
    1032:	94 e0       	ldi	r25, 0x04	; 4
    1034:	b7 d0       	rcall	.+366    	; 0x11a4 <strcmp>
    1036:	89 2b       	or	r24, r25
    1038:	f9 f0       	breq	.+62     	; 0x1078 <__EEPROM_REGION_LENGTH__+0x78>
    103a:	64 e2       	ldi	r22, 0x24	; 36
    103c:	72 e0       	ldi	r23, 0x02	; 2
    103e:	81 ed       	ldi	r24, 0xD1	; 209
    1040:	94 e0       	ldi	r25, 0x04	; 4
    1042:	b0 d0       	rcall	.+352    	; 0x11a4 <strcmp>
    1044:	89 2b       	or	r24, r25
    1046:	d9 f0       	breq	.+54     	; 0x107e <__EEPROM_REGION_LENGTH__+0x7e>
    1048:	6c e3       	ldi	r22, 0x3C	; 60
    104a:	72 e0       	ldi	r23, 0x02	; 2
    104c:	81 ed       	ldi	r24, 0xD1	; 209
    104e:	94 e0       	ldi	r25, 0x04	; 4
    1050:	a9 d0       	rcall	.+338    	; 0x11a4 <strcmp>
    1052:	89 2b       	or	r24, r25
    1054:	b9 f0       	breq	.+46     	; 0x1084 <__EEPROM_REGION_LENGTH__+0x84>
    1056:	6a e2       	ldi	r22, 0x2A	; 42
    1058:	72 e0       	ldi	r23, 0x02	; 2
    105a:	81 ed       	ldi	r24, 0xD1	; 209
    105c:	94 e0       	ldi	r25, 0x04	; 4
    105e:	a2 d0       	rcall	.+324    	; 0x11a4 <strcmp>
    1060:	89 2b       	or	r24, r25
    1062:	99 f0       	breq	.+38     	; 0x108a <__EEPROM_REGION_LENGTH__+0x8a>
    1064:	60 e3       	ldi	r22, 0x30	; 48
    1066:	72 e0       	ldi	r23, 0x02	; 2
    1068:	81 ed       	ldi	r24, 0xD1	; 209
    106a:	94 e0       	ldi	r25, 0x04	; 4
    106c:	9b d0       	rcall	.+310    	; 0x11a4 <strcmp>
    106e:	89 2b       	or	r24, r25
    1070:	79 f4       	brne	.+30     	; 0x1090 <__EEPROM_REGION_LENGTH__+0x90>
    1072:	8a e7       	ldi	r24, 0x7A	; 122
    1074:	92 e0       	ldi	r25, 0x02	; 2
		return senha;

	return "INVAL";//caso a senha seja uma ja usada pelo sistemas, retornamos INVAL de invalida
    1076:	08 95       	ret
    1078:	8a e7       	ldi	r24, 0x7A	; 122
    107a:	92 e0       	ldi	r25, 0x02	; 2
    107c:	08 95       	ret
    107e:	8a e7       	ldi	r24, 0x7A	; 122
    1080:	92 e0       	ldi	r25, 0x02	; 2
    1082:	08 95       	ret
    1084:	8a e7       	ldi	r24, 0x7A	; 122
    1086:	92 e0       	ldi	r25, 0x02	; 2
    1088:	08 95       	ret
    108a:	8a e7       	ldi	r24, 0x7A	; 122
    108c:	92 e0       	ldi	r25, 0x02	; 2
    108e:	08 95       	ret
    1090:	81 ed       	ldi	r24, 0xD1	; 209
    1092:	94 e0       	ldi	r25, 0x04	; 4
			}
		}
	}

	if(strcmp(senha,senhas.adm) && strcmp(senha,senhas.central) && strcmp(senha,senhas.intruso) && strcmp(senha,senhas.usuario1) && strcmp(senha,senhas.usuario2))
		return senha;
    1094:	08 95       	ret

00001096 <validar_senha>:
    1096:	6a e2       	ldi	r22, 0x2A	; 42

	return "INVAL";//caso a senha seja uma ja usada pelo sistemas, retornamos INVAL de invalida
}
    1098:	72 e0       	ldi	r23, 0x02	; 2

const char* validar_senha(){ //compara senha digitada com senhas guardadas no sistema
	if((!strcmp(senha,senhas.usuario1)) && usuario1Status){
    109a:	81 ed       	ldi	r24, 0xD1	; 209
    109c:	94 e0       	ldi	r25, 0x04	; 4
    109e:	82 d0       	rcall	.+260    	; 0x11a4 <strcmp>
    10a0:	89 2b       	or	r24, r25
    10a2:	21 f4       	brne	.+8      	; 0x10ac <validar_senha+0x16>
    10a4:	80 91 12 02 	lds	r24, 0x0212	; 0x800212 <usuario1Status>
    10a8:	81 11       	cpse	r24, r1
    10aa:	23 c0       	rjmp	.+70     	; 0x10f2 <validar_senha+0x5c>
		return "usuario1";
	}else if((!strcmp(senha,senhas.usuario2)) && usuario2Status){
    10ac:	60 e3       	ldi	r22, 0x30	; 48
    10ae:	72 e0       	ldi	r23, 0x02	; 2
    10b0:	81 ed       	ldi	r24, 0xD1	; 209
    10b2:	94 e0       	ldi	r25, 0x04	; 4
    10b4:	77 d0       	rcall	.+238    	; 0x11a4 <strcmp>
    10b6:	89 2b       	or	r24, r25
    10b8:	21 f4       	brne	.+8      	; 0x10c2 <validar_senha+0x2c>
    10ba:	80 91 11 02 	lds	r24, 0x0211	; 0x800211 <usuario2Status>
    10be:	81 11       	cpse	r24, r1
    10c0:	1b c0       	rjmp	.+54     	; 0x10f8 <validar_senha+0x62>
		return "usuario2";
	}else if(!strcmp(senha,senhas.adm)){
    10c2:	66 e3       	ldi	r22, 0x36	; 54
    10c4:	72 e0       	ldi	r23, 0x02	; 2
    10c6:	81 ed       	ldi	r24, 0xD1	; 209
    10c8:	94 e0       	ldi	r25, 0x04	; 4
    10ca:	6c d0       	rcall	.+216    	; 0x11a4 <strcmp>
    10cc:	89 2b       	or	r24, r25
    10ce:	b9 f0       	breq	.+46     	; 0x10fe <validar_senha+0x68>
		return "adm";
	}else if(!strcmp(senha,senhas.central)){
    10d0:	64 e2       	ldi	r22, 0x24	; 36
    10d2:	72 e0       	ldi	r23, 0x02	; 2
    10d4:	81 ed       	ldi	r24, 0xD1	; 209
    10d6:	94 e0       	ldi	r25, 0x04	; 4
    10d8:	65 d0       	rcall	.+202    	; 0x11a4 <strcmp>
    10da:	89 2b       	or	r24, r25
    10dc:	99 f0       	breq	.+38     	; 0x1104 <validar_senha+0x6e>
		return "central";
	}else if(!strcmp(senha,senhas.intruso)){
    10de:	6c e3       	ldi	r22, 0x3C	; 60
    10e0:	72 e0       	ldi	r23, 0x02	; 2
    10e2:	81 ed       	ldi	r24, 0xD1	; 209
    10e4:	94 e0       	ldi	r25, 0x04	; 4
    10e6:	5e d0       	rcall	.+188    	; 0x11a4 <strcmp>
    10e8:	89 2b       	or	r24, r25
    10ea:	79 f4       	brne	.+30     	; 0x110a <validar_senha+0x74>
		return "intruso";
    10ec:	83 ea       	ldi	r24, 0xA3	; 163
    10ee:	94 e0       	ldi	r25, 0x04	; 4
    10f0:	08 95       	ret
	return "INVAL";//caso a senha seja uma ja usada pelo sistemas, retornamos INVAL de invalida
}

const char* validar_senha(){ //compara senha digitada com senhas guardadas no sistema
	if((!strcmp(senha,senhas.usuario1)) && usuario1Status){
		return "usuario1";
    10f2:	8d e8       	ldi	r24, 0x8D	; 141
    10f4:	94 e0       	ldi	r25, 0x04	; 4
    10f6:	08 95       	ret
	}else if((!strcmp(senha,senhas.usuario2)) && usuario2Status){
		return "usuario2";
    10f8:	86 e9       	ldi	r24, 0x96	; 150
    10fa:	94 e0       	ldi	r25, 0x04	; 4
    10fc:	08 95       	ret
	}else if(!strcmp(senha,senhas.adm)){
		return "adm";
    10fe:	8f e9       	ldi	r24, 0x9F	; 159
    1100:	94 e0       	ldi	r25, 0x04	; 4
    1102:	08 95       	ret
	}else if(!strcmp(senha,senhas.central)){
		return "central";
    1104:	85 e8       	ldi	r24, 0x85	; 133
    1106:	94 e0       	ldi	r25, 0x04	; 4
    1108:	08 95       	ret
	}else if(!strcmp(senha,senhas.intruso)){
		return "intruso";
	}else{
		return "senha incorreta";// se não for nenhuma das anteriores, é uma senha invalida
    110a:	8b ea       	ldi	r24, 0xAB	; 171
    110c:	94 e0       	ldi	r25, 0x04	; 4
	}
	
}
    110e:	08 95       	ret

00001110 <resultado_validacao>:

int resultado_validacao(){
    1110:	cf 93       	push	r28
    1112:	df 93       	push	r29
	
	validacao = validar_senha();
    1114:	c0 df       	rcall	.-128    	; 0x1096 <validar_senha>
    1116:	90 93 e1 04 	sts	0x04E1, r25	; 0x8004e1 <validacao+0x1>
    111a:	80 93 e0 04 	sts	0x04E0, r24	; 0x8004e0 <validacao>
	
	if(!strcmp(validacao,"senha incorreta")){
    111e:	6b ea       	ldi	r22, 0xAB	; 171
    1120:	74 e0       	ldi	r23, 0x04	; 4
    1122:	40 d0       	rcall	.+128    	; 0x11a4 <strcmp>
    1124:	ec 01       	movw	r28, r24
    1126:	89 2b       	or	r24, r25
		limpa_reseta_cursor();
    1128:	39 f4       	brne	.+14     	; 0x1138 <resultado_validacao+0x28>
    112a:	22 db       	rcall	.-2492   	; 0x770 <limpa_reseta_cursor>
		nr_digitados = 0;
    112c:	10 92 d8 04 	sts	0x04D8, r1	; 0x8004d8 <nr_digitados+0x1>
    1130:	10 92 d7 04 	sts	0x04D7, r1	; 0x8004d7 <nr_digitados>
		telaSenhaIncorreta();
    1134:	28 dc       	rcall	.-1968   	; 0x986 <telaSenhaIncorreta>
		return 0;//caso incorreta, o sistema não permite ações de usuário e pede novamente uma senha
    1136:	32 c0       	rjmp	.+100    	; 0x119c <resultado_validacao+0x8c>
	}else{
		limpa_reseta_cursor();
    1138:	1b db       	rcall	.-2506   	; 0x770 <limpa_reseta_cursor>
		nr_digitados = 0;
    113a:	10 92 d8 04 	sts	0x04D8, r1	; 0x8004d8 <nr_digitados+0x1>
    113e:	10 92 d7 04 	sts	0x04D7, r1	; 0x8004d7 <nr_digitados>
		telaSenhaCorreta();
    1142:	2a dc       	rcall	.-1964   	; 0x998 <telaSenhaCorreta>
		delay_1s();
    1144:	17 df       	rcall	.-466    	; 0xf74 <delay_1s>
		
		if(!strcmp(validacao,"central"))//caso a senha seja da central, automaticamente vamos enviar que o segurança esta no local para a central
    1146:	65 e8       	ldi	r22, 0x85	; 133
    1148:	74 e0       	ldi	r23, 0x04	; 4
    114a:	80 91 e0 04 	lds	r24, 0x04E0	; 0x8004e0 <validacao>
    114e:	90 91 e1 04 	lds	r25, 0x04E1	; 0x8004e1 <validacao+0x1>
    1152:	28 d0       	rcall	.+80     	; 0x11a4 <strcmp>
    1154:	89 2b       	or	r24, r25
    1156:	19 f4       	brne	.+6      	; 0x115e <resultado_validacao+0x4e>
		{
			enviarStringSerial("AMV");
    1158:	8b eb       	ldi	r24, 0xBB	; 187
    115a:	94 e0       	ldi	r25, 0x04	; 4
    115c:	d9 d8       	rcall	.-3662   	; 0x310 <enviarStringSerial>
		}
		if(!strcmp(validacao,"intruso"))//caso a senha seja do intruso, automaticamente vamos enviar que o intruso esta no local
    115e:	63 ea       	ldi	r22, 0xA3	; 163
    1160:	74 e0       	ldi	r23, 0x04	; 4
    1162:	80 91 e0 04 	lds	r24, 0x04E0	; 0x8004e0 <validacao>
    1166:	90 91 e1 04 	lds	r25, 0x04E1	; 0x8004e1 <validacao+0x1>
    116a:	1c d0       	rcall	.+56     	; 0x11a4 <strcmp>
    116c:	89 2b       	or	r24, r25
    116e:	19 f4       	brne	.+6      	; 0x1176 <resultado_validacao+0x66>
		{
			enviarStringSerial("AMI");
    1170:	82 e7       	ldi	r24, 0x72	; 114
    1172:	92 e0       	ldi	r25, 0x02	; 2
    1174:	cd d8       	rcall	.-3686   	; 0x310 <enviarStringSerial>
		}
		
		if (strcmp(validacao, "adm") == 0){
    1176:	6f e9       	ldi	r22, 0x9F	; 159
    1178:	74 e0       	ldi	r23, 0x04	; 4
    117a:	80 91 e0 04 	lds	r24, 0x04E0	; 0x8004e0 <validacao>
    117e:	90 91 e1 04 	lds	r25, 0x04E1	; 0x8004e1 <validacao+0x1>
    1182:	10 d0       	rcall	.+32     	; 0x11a4 <strcmp>
    1184:	89 2b       	or	r24, r25
			telaBemVindoAdm();
    1186:	41 f4       	brne	.+16     	; 0x1198 <resultado_validacao+0x88>
    1188:	0c dc       	rcall	.-2024   	; 0x9a2 <telaBemVindoAdm>
			delay_1s();
    118a:	f4 de       	rcall	.-536    	; 0xf74 <delay_1s>
    118c:	81 e0       	ldi	r24, 0x01	; 1
			admLogin = 1;
    118e:	80 93 e5 04 	sts	0x04E5, r24	; 0x8004e5 <admLogin>
    1192:	c2 e0       	ldi	r28, 0x02	; 2
			// chama rotina do adm no main
			return 2; // p nao ativar o alarme quando for adm
    1194:	d0 e0       	ldi	r29, 0x00	; 0
    1196:	02 c0       	rjmp	.+4      	; 0x119c <resultado_validacao+0x8c>
    1198:	c1 e0       	ldi	r28, 0x01	; 1
		}
		return 1;
    119a:	d0 e0       	ldi	r29, 0x00	; 0
    119c:	ce 01       	movw	r24, r28
	}	
    119e:	df 91       	pop	r29
    11a0:	cf 91       	pop	r28
    11a2:	08 95       	ret

000011a4 <strcmp>:
    11a4:	fb 01       	movw	r30, r22
    11a6:	dc 01       	movw	r26, r24
    11a8:	8d 91       	ld	r24, X+
    11aa:	01 90       	ld	r0, Z+
    11ac:	80 19       	sub	r24, r0
    11ae:	01 10       	cpse	r0, r1
    11b0:	d9 f3       	breq	.-10     	; 0x11a8 <strcmp+0x4>
    11b2:	99 0b       	sbc	r25, r25
    11b4:	08 95       	ret

000011b6 <strcpy>:
    11b6:	fb 01       	movw	r30, r22
    11b8:	dc 01       	movw	r26, r24
    11ba:	01 90       	ld	r0, Z+
    11bc:	0d 92       	st	X+, r0
    11be:	00 20       	and	r0, r0
    11c0:	e1 f7       	brne	.-8      	; 0x11ba <strcpy+0x4>
    11c2:	08 95       	ret

000011c4 <_exit>:
    11c4:	f8 94       	cli

000011c6 <__stop_program>:
    11c6:	ff cf       	rjmp	.-2      	; 0x11c6 <__stop_program>
