
lcd_dale.elf:     file format elf32-avr

Sections:
Idx Name          Size      VMA       LMA       File off  Algn
  0 .data         000000d6  00800200  00000784  00000818  2**0
                  CONTENTS, ALLOC, LOAD, DATA
  1 .text         00000784  00000000  00000000  00000094  2**1
                  CONTENTS, ALLOC, LOAD, READONLY, CODE
  2 .bss          0000000e  008002d6  008002d6  000008ee  2**0
                  ALLOC
  3 .comment      00000030  00000000  00000000  000008ee  2**0
                  CONTENTS, READONLY
  4 .note.gnu.avr.deviceinfo 00000040  00000000  00000000  00000920  2**2
                  CONTENTS, READONLY
  5 .debug_aranges 000001b8  00000000  00000000  00000960  2**0
                  CONTENTS, READONLY, DEBUGGING
  6 .debug_info   000021ed  00000000  00000000  00000b18  2**0
                  CONTENTS, READONLY, DEBUGGING
  7 .debug_abbrev 000010d9  00000000  00000000  00002d05  2**0
                  CONTENTS, READONLY, DEBUGGING
  8 .debug_line   0000105d  00000000  00000000  00003dde  2**0
                  CONTENTS, READONLY, DEBUGGING
  9 .debug_frame  00000394  00000000  00000000  00004e3c  2**2
                  CONTENTS, READONLY, DEBUGGING
 10 .debug_str    00000871  00000000  00000000  000051d0  2**0
                  CONTENTS, READONLY, DEBUGGING
 11 .debug_loc    000004aa  00000000  00000000  00005a41  2**0
                  CONTENTS, READONLY, DEBUGGING
 12 .debug_ranges 00000158  00000000  00000000  00005eeb  2**0
                  CONTENTS, READONLY, DEBUGGING

Disassembly of section .text:

00000000 <__vectors>:
   0:	71 c0       	rjmp	.+226    	; 0xe4 <__ctors_end>
   2:	00 00       	nop
   4:	8e c0       	rjmp	.+284    	; 0x122 <__bad_interrupt>
   6:	00 00       	nop
   8:	8c c0       	rjmp	.+280    	; 0x122 <__bad_interrupt>
   a:	00 00       	nop
   c:	8a c0       	rjmp	.+276    	; 0x122 <__bad_interrupt>
   e:	00 00       	nop
  10:	88 c0       	rjmp	.+272    	; 0x122 <__bad_interrupt>
  12:	00 00       	nop
  14:	86 c0       	rjmp	.+268    	; 0x122 <__bad_interrupt>
  16:	00 00       	nop
  18:	84 c0       	rjmp	.+264    	; 0x122 <__bad_interrupt>
  1a:	00 00       	nop
  1c:	82 c0       	rjmp	.+260    	; 0x122 <__bad_interrupt>
  1e:	00 00       	nop
  20:	80 c0       	rjmp	.+256    	; 0x122 <__bad_interrupt>
  22:	00 00       	nop
  24:	7e c0       	rjmp	.+252    	; 0x122 <__bad_interrupt>
  26:	00 00       	nop
  28:	7c c0       	rjmp	.+248    	; 0x122 <__bad_interrupt>
  2a:	00 00       	nop
  2c:	85 c2       	rjmp	.+1290   	; 0x538 <__vector_11>
  2e:	00 00       	nop
  30:	78 c0       	rjmp	.+240    	; 0x122 <__bad_interrupt>
  32:	00 00       	nop
  34:	76 c0       	rjmp	.+236    	; 0x122 <__bad_interrupt>
  36:	00 00       	nop
  38:	74 c0       	rjmp	.+232    	; 0x122 <__bad_interrupt>
  3a:	00 00       	nop
  3c:	72 c0       	rjmp	.+228    	; 0x122 <__bad_interrupt>
  3e:	00 00       	nop
  40:	70 c0       	rjmp	.+224    	; 0x122 <__bad_interrupt>
  42:	00 00       	nop
  44:	6e c0       	rjmp	.+220    	; 0x122 <__bad_interrupt>
  46:	00 00       	nop
  48:	6c c0       	rjmp	.+216    	; 0x122 <__bad_interrupt>
  4a:	00 00       	nop
  4c:	6a c0       	rjmp	.+212    	; 0x122 <__bad_interrupt>
  4e:	00 00       	nop
  50:	f4 c2       	rjmp	.+1512   	; 0x63a <__vector_20>
  52:	00 00       	nop
  54:	66 c0       	rjmp	.+204    	; 0x122 <__bad_interrupt>
  56:	00 00       	nop
  58:	64 c0       	rjmp	.+200    	; 0x122 <__bad_interrupt>
  5a:	00 00       	nop
  5c:	62 c0       	rjmp	.+196    	; 0x122 <__bad_interrupt>
  5e:	00 00       	nop
  60:	60 c0       	rjmp	.+192    	; 0x122 <__bad_interrupt>
  62:	00 00       	nop
  64:	5e c0       	rjmp	.+188    	; 0x122 <__bad_interrupt>
  66:	00 00       	nop
  68:	5c c0       	rjmp	.+184    	; 0x122 <__bad_interrupt>
  6a:	00 00       	nop
  6c:	5a c0       	rjmp	.+180    	; 0x122 <__bad_interrupt>
  6e:	00 00       	nop
  70:	58 c0       	rjmp	.+176    	; 0x122 <__bad_interrupt>
  72:	00 00       	nop
  74:	56 c0       	rjmp	.+172    	; 0x122 <__bad_interrupt>
  76:	00 00       	nop
  78:	54 c0       	rjmp	.+168    	; 0x122 <__bad_interrupt>
  7a:	00 00       	nop
  7c:	52 c0       	rjmp	.+164    	; 0x122 <__bad_interrupt>
  7e:	00 00       	nop
  80:	50 c0       	rjmp	.+160    	; 0x122 <__bad_interrupt>
  82:	00 00       	nop
  84:	4e c0       	rjmp	.+156    	; 0x122 <__bad_interrupt>
  86:	00 00       	nop
  88:	4c c0       	rjmp	.+152    	; 0x122 <__bad_interrupt>
  8a:	00 00       	nop
  8c:	f2 c2       	rjmp	.+1508   	; 0x672 <__vector_35>
  8e:	00 00       	nop
  90:	48 c0       	rjmp	.+144    	; 0x122 <__bad_interrupt>
  92:	00 00       	nop
  94:	46 c0       	rjmp	.+140    	; 0x122 <__bad_interrupt>
  96:	00 00       	nop
  98:	44 c0       	rjmp	.+136    	; 0x122 <__bad_interrupt>
  9a:	00 00       	nop
  9c:	42 c0       	rjmp	.+132    	; 0x122 <__bad_interrupt>
  9e:	00 00       	nop
  a0:	40 c0       	rjmp	.+128    	; 0x122 <__bad_interrupt>
  a2:	00 00       	nop
  a4:	3e c0       	rjmp	.+124    	; 0x122 <__bad_interrupt>
  a6:	00 00       	nop
  a8:	3c c0       	rjmp	.+120    	; 0x122 <__bad_interrupt>
  aa:	00 00       	nop
  ac:	3a c0       	rjmp	.+116    	; 0x122 <__bad_interrupt>
  ae:	00 00       	nop
  b0:	38 c0       	rjmp	.+112    	; 0x122 <__bad_interrupt>
  b2:	00 00       	nop
  b4:	fa c2       	rjmp	.+1524   	; 0x6aa <__vector_45>
  b6:	00 00       	nop
  b8:	34 c0       	rjmp	.+104    	; 0x122 <__bad_interrupt>
  ba:	00 00       	nop
  bc:	32 c0       	rjmp	.+100    	; 0x122 <__bad_interrupt>
  be:	00 00       	nop
  c0:	30 c0       	rjmp	.+96     	; 0x122 <__bad_interrupt>
  c2:	00 00       	nop
  c4:	2e c0       	rjmp	.+92     	; 0x122 <__bad_interrupt>
  c6:	00 00       	nop
  c8:	2c c0       	rjmp	.+88     	; 0x122 <__bad_interrupt>
  ca:	00 00       	nop
  cc:	2a c0       	rjmp	.+84     	; 0x122 <__bad_interrupt>
  ce:	00 00       	nop
  d0:	28 c0       	rjmp	.+80     	; 0x122 <__bad_interrupt>
  d2:	00 00       	nop
  d4:	26 c0       	rjmp	.+76     	; 0x122 <__bad_interrupt>
  d6:	00 00       	nop
  d8:	24 c0       	rjmp	.+72     	; 0x122 <__bad_interrupt>
  da:	00 00       	nop
  dc:	22 c0       	rjmp	.+68     	; 0x122 <__bad_interrupt>
  de:	00 00       	nop
  e0:	20 c0       	rjmp	.+64     	; 0x122 <__bad_interrupt>
	...

000000e4 <__ctors_end>:
  e4:	11 24       	eor	r1, r1
  e6:	1f be       	out	0x3f, r1	; 63
  e8:	cf ef       	ldi	r28, 0xFF	; 255
  ea:	d1 e2       	ldi	r29, 0x21	; 33
  ec:	de bf       	out	0x3e, r29	; 62
  ee:	cd bf       	out	0x3d, r28	; 61
  f0:	00 e0       	ldi	r16, 0x00	; 0
  f2:	0c bf       	out	0x3c, r16	; 60

000000f4 <__do_copy_data>:
  f4:	12 e0       	ldi	r17, 0x02	; 2
  f6:	a0 e0       	ldi	r26, 0x00	; 0
  f8:	b2 e0       	ldi	r27, 0x02	; 2
  fa:	e4 e8       	ldi	r30, 0x84	; 132
  fc:	f7 e0       	ldi	r31, 0x07	; 7
  fe:	00 e0       	ldi	r16, 0x00	; 0
 100:	0b bf       	out	0x3b, r16	; 59
 102:	02 c0       	rjmp	.+4      	; 0x108 <__do_copy_data+0x14>
 104:	07 90       	elpm	r0, Z+
 106:	0d 92       	st	X+, r0
 108:	a6 3d       	cpi	r26, 0xD6	; 214
 10a:	b1 07       	cpc	r27, r17
 10c:	d9 f7       	brne	.-10     	; 0x104 <__do_copy_data+0x10>

0000010e <__do_clear_bss>:
 10e:	22 e0       	ldi	r18, 0x02	; 2
 110:	a6 ed       	ldi	r26, 0xD6	; 214
 112:	b2 e0       	ldi	r27, 0x02	; 2
 114:	01 c0       	rjmp	.+2      	; 0x118 <.do_clear_bss_start>

00000116 <.do_clear_bss_loop>:
 116:	1d 92       	st	X+, r1

00000118 <.do_clear_bss_start>:
 118:	a4 3e       	cpi	r26, 0xE4	; 228
 11a:	b2 07       	cpc	r27, r18
 11c:	e1 f7       	brne	.-8      	; 0x116 <.do_clear_bss_loop>
 11e:	f3 d1       	rcall	.+998    	; 0x506 <main>
 120:	2f c3       	rjmp	.+1630   	; 0x780 <_exit>

00000122 <__bad_interrupt>:
 122:	6e cf       	rjmp	.-292    	; 0x0 <__vectors>

00000124 <tela1>:
char sair = 1;
char novaSenha[6]= {"11111"};
	
	void tela1()
	{
		limpa_reseta_cursor();
 124:	d0 d1       	rcall	.+928    	; 0x4c6 <limpa_reseta_cursor>
		send_string("* TROCAR SENHAS");
 126:	88 e3       	ldi	r24, 0x38	; 56
 128:	92 e0       	ldi	r25, 0x02	; 2
		proxima_linha();
 12a:	c1 d1       	rcall	.+898    	; 0x4ae <send_string>
		send_string("# MAIS OPCOES");
 12c:	e6 d1       	rcall	.+972    	; 0x4fa <proxima_linha>
 12e:	88 e4       	ldi	r24, 0x48	; 72
 130:	92 e0       	ldi	r25, 0x02	; 2
 132:	bd c1       	rjmp	.+890    	; 0x4ae <send_string>
 134:	08 95       	ret

00000136 <tela2>:
	}
	void tela2()
	{
		limpa_reseta_cursor();
 136:	c7 d1       	rcall	.+910    	; 0x4c6 <limpa_reseta_cursor>
		send_string("* ESTADO USUARIO");
 138:	86 e5       	ldi	r24, 0x56	; 86
 13a:	92 e0       	ldi	r25, 0x02	; 2
		proxima_linha();
 13c:	b8 d1       	rcall	.+880    	; 0x4ae <send_string>
		send_string("# MAIS OPCOES");
 13e:	dd d1       	rcall	.+954    	; 0x4fa <proxima_linha>
 140:	88 e4       	ldi	r24, 0x48	; 72
 142:	92 e0       	ldi	r25, 0x02	; 2
 144:	b4 c1       	rjmp	.+872    	; 0x4ae <send_string>
 146:	08 95       	ret

00000148 <tela3>:
		
	}
	void tela3()
	{
		limpa_reseta_cursor();
 148:	be d1       	rcall	.+892    	; 0x4c6 <limpa_reseta_cursor>
		send_string("* PEDIR HORAS");
 14a:	87 e6       	ldi	r24, 0x67	; 103
 14c:	92 e0       	ldi	r25, 0x02	; 2
		proxima_linha();
 14e:	af d1       	rcall	.+862    	; 0x4ae <send_string>
		send_string("# MAIS OPCOES");
 150:	d4 d1       	rcall	.+936    	; 0x4fa <proxima_linha>
 152:	88 e4       	ldi	r24, 0x48	; 72
 154:	92 e0       	ldi	r25, 0x02	; 2
 156:	ab c1       	rjmp	.+854    	; 0x4ae <send_string>
 158:	08 95       	ret

0000015a <tela4>:
	}

	void tela4()
	{
		limpa_reseta_cursor();
 15a:	b5 d1       	rcall	.+874    	; 0x4c6 <limpa_reseta_cursor>
		send_string("* ");
 15c:	85 e7       	ldi	r24, 0x75	; 117
 15e:	92 e0       	ldi	r25, 0x02	; 2
 160:	a6 d1       	rcall	.+844    	; 0x4ae <send_string>
		if(!modoNoturnoStatus)
 162:	80 91 07 02 	lds	r24, 0x0207	; 0x800207 <modoNoturnoStatus>
 166:	81 11       	cpse	r24, r1
 168:	04 c0       	rjmp	.+8      	; 0x172 <tela4+0x18>
		{
			send_string("HAB");
 16a:	88 e7       	ldi	r24, 0x78	; 120
 16c:	92 e0       	ldi	r25, 0x02	; 2
 16e:	9f d1       	rcall	.+830    	; 0x4ae <send_string>
 170:	03 c0       	rjmp	.+6      	; 0x178 <tela4+0x1e>
		}else
		{
			send_string("DES");
 172:	8c e7       	ldi	r24, 0x7C	; 124
 174:	92 e0       	ldi	r25, 0x02	; 2
 176:	9b d1       	rcall	.+822    	; 0x4ae <send_string>
		}
		send_string(" MODO NOT");
 178:	80 e8       	ldi	r24, 0x80	; 128
 17a:	92 e0       	ldi	r25, 0x02	; 2
 17c:	98 d1       	rcall	.+816    	; 0x4ae <send_string>
		proxima_linha();
 17e:	bd d1       	rcall	.+890    	; 0x4fa <proxima_linha>
 180:	8a e8       	ldi	r24, 0x8A	; 138
		send_string("# SAIR");
 182:	92 e0       	ldi	r25, 0x02	; 2
 184:	94 c1       	rjmp	.+808    	; 0x4ae <send_string>
 186:	08 95       	ret

00000188 <telaTrocaSenhas>:
 188:	9e d1       	rcall	.+828    	; 0x4c6 <limpa_reseta_cursor>
 18a:	81 e9       	ldi	r24, 0x91	; 145
	}

	void telaTrocaSenhas()
	{
		limpa_reseta_cursor();
		send_string("1/2 - USUARIO1/2");
 18c:	92 e0       	ldi	r25, 0x02	; 2
		proxima_linha();
 18e:	8f d1       	rcall	.+798    	; 0x4ae <send_string>
		send_string("* - ADM");
 190:	b4 d1       	rcall	.+872    	; 0x4fa <proxima_linha>
 192:	82 ea       	ldi	r24, 0xA2	; 162
 194:	92 e0       	ldi	r25, 0x02	; 2
 196:	8b c1       	rjmp	.+790    	; 0x4ae <send_string>
 198:	08 95       	ret

0000019a <telaDeStatusUsuario>:
	}

	void telaDeStatusUsuario()
	{
		limpa_reseta_cursor();
 19a:	95 d1       	rcall	.+810    	; 0x4c6 <limpa_reseta_cursor>
		send_string("1 - ");
 19c:	8a ea       	ldi	r24, 0xAA	; 170
 19e:	92 e0       	ldi	r25, 0x02	; 2
 1a0:	86 d1       	rcall	.+780    	; 0x4ae <send_string>
		if(!usuario1Status)
 1a2:	80 91 09 02 	lds	r24, 0x0209	; 0x800209 <usuario1Status>
 1a6:	81 11       	cpse	r24, r1
 1a8:	04 c0       	rjmp	.+8      	; 0x1b2 <telaDeStatusUsuario+0x18>
		{
			send_string("HAB");//TELA PARA HABILITAR USUARO 1
 1aa:	88 e7       	ldi	r24, 0x78	; 120
 1ac:	92 e0       	ldi	r25, 0x02	; 2
 1ae:	7f d1       	rcall	.+766    	; 0x4ae <send_string>
 1b0:	03 c0       	rjmp	.+6      	; 0x1b8 <telaDeStatusUsuario+0x1e>
		}else
		{
			send_string("DES");//TELA PARA HABILITAR USUARO 1
 1b2:	8c e7       	ldi	r24, 0x7C	; 124
 1b4:	92 e0       	ldi	r25, 0x02	; 2
 1b6:	7b d1       	rcall	.+758    	; 0x4ae <send_string>
		}
		send_string(" USUARIO1");
 1b8:	8f ea       	ldi	r24, 0xAF	; 175
 1ba:	92 e0       	ldi	r25, 0x02	; 2
 1bc:	78 d1       	rcall	.+752    	; 0x4ae <send_string>
		proxima_linha();
 1be:	9d d1       	rcall	.+826    	; 0x4fa <proxima_linha>
 1c0:	89 eb       	ldi	r24, 0xB9	; 185
		send_string("2 - ");
 1c2:	92 e0       	ldi	r25, 0x02	; 2
 1c4:	74 d1       	rcall	.+744    	; 0x4ae <send_string>
 1c6:	80 91 08 02 	lds	r24, 0x0208	; 0x800208 <usuario2Status>
		if(!usuario2Status)
 1ca:	81 11       	cpse	r24, r1
 1cc:	04 c0       	rjmp	.+8      	; 0x1d6 <telaDeStatusUsuario+0x3c>
		{
			send_string("HAB");//TELA PARA HABILITAR USUARO 2
 1ce:	88 e7       	ldi	r24, 0x78	; 120
 1d0:	92 e0       	ldi	r25, 0x02	; 2
 1d2:	6d d1       	rcall	.+730    	; 0x4ae <send_string>
 1d4:	03 c0       	rjmp	.+6      	; 0x1dc <telaDeStatusUsuario+0x42>
		}else
		{
			send_string("DES");//TELA PARA HABILITAR USUARO 2
 1d6:	8c e7       	ldi	r24, 0x7C	; 124
 1d8:	92 e0       	ldi	r25, 0x02	; 2
 1da:	69 d1       	rcall	.+722    	; 0x4ae <send_string>
 1dc:	8e eb       	ldi	r24, 0xBE	; 190
		}
		send_string(" USUARIO2  ");
 1de:	92 e0       	ldi	r25, 0x02	; 2
 1e0:	66 c1       	rjmp	.+716    	; 0x4ae <send_string>
 1e2:	08 95       	ret

000001e4 <subRotinaAdm>:
 1e4:	cf 93       	push	r28
 1e6:	7c d2       	rcall	.+1272   	; 0x6e0 <delay_1s>

void subRotinaAdm()
{
	
	delay_1s();//espera para exibir a mensagem de senha correta
	delay_1s();
 1e8:	7b d2       	rcall	.+1270   	; 0x6e0 <delay_1s>
	
	tela1();// troca senhas ou mais opcoes
 1ea:	9c df       	rcall	.-200    	; 0x124 <tela1>
 1ec:	10 92 06 02 	sts	0x0206, r1	; 0x800206 <sair>
	sair = 0;
 1f0:	81 e0       	ldi	r24, 0x01	; 1
	PCMSK2 = 0x01;
 1f2:	80 93 6d 00 	sts	0x006D, r24	; 0x80006d <__TEXT_REGION_LENGTH__+0x7c006d>
	while(!sair)
 1f6:	83 c0       	rjmp	.+262    	; 0x2fe <subRotinaAdm+0x11a>
	{
		instrucaoDigitada = procuraTecla();
 1f8:	f9 d0       	rcall	.+498    	; 0x3ec <procuraTecla>
 1fa:	80 93 d6 02 	sts	0x02D6, r24	; 0x8002d6 <__data_end>
		
		if(instrucaoDigitada == '*')//opção trocar senha de usuários
 1fe:	8a 32       	cpi	r24, 0x2A	; 42
		{
			telaTrocaSenhas();
 200:	89 f5       	brne	.+98     	; 0x264 <subRotinaAdm+0x80>
 202:	c2 df       	rcall	.-124    	; 0x188 <telaTrocaSenhas>
			instrucaoDigitada = '\0';
 204:	10 92 d6 02 	sts	0x02D6, r1	; 0x8002d6 <__data_end>
			while(1)
			{
				instrucaoDigitada = procuraTecla();
 208:	f1 d0       	rcall	.+482    	; 0x3ec <procuraTecla>
 20a:	80 93 d6 02 	sts	0x02D6, r24	; 0x8002d6 <__data_end>
 20e:	9f ec       	ldi	r25, 0xCF	; 207
				if(instrucaoDigitada == '1' || instrucaoDigitada == '2' || instrucaoDigitada == '*')
 210:	98 0f       	add	r25, r24
 212:	92 30       	cpi	r25, 0x02	; 2
 214:	10 f0       	brcs	.+4      	; 0x21a <subRotinaAdm+0x36>
 216:	8a 32       	cpi	r24, 0x2A	; 42
				{
					limpa_reseta_cursor();
 218:	b9 f7       	brne	.-18     	; 0x208 <subRotinaAdm+0x24>
 21a:	55 d1       	rcall	.+682    	; 0x4c6 <limpa_reseta_cursor>
					send_string("NOVA SENHA:");
 21c:	8a ec       	ldi	r24, 0xCA	; 202
 21e:	92 e0       	ldi	r25, 0x02	; 2
 220:	46 d1       	rcall	.+652    	; 0x4ae <send_string>
					proxima_linha();
 222:	6b d1       	rcall	.+726    	; 0x4fa <proxima_linha>
 224:	80 d2       	rcall	.+1280   	; 0x726 <subRotinaTrocaSenha>
					
					strcpy(novaSenha,subRotinaTrocaSenha());
 226:	bc 01       	movw	r22, r24
 228:	80 e0       	ldi	r24, 0x00	; 0
 22a:	92 e0       	ldi	r25, 0x02	; 2
 22c:	a2 d2       	rcall	.+1348   	; 0x772 <strcpy>
 22e:	c0 91 d6 02 	lds	r28, 0x02D6	; 0x8002d6 <__data_end>
					
					if(instrucaoDigitada == '1')//usuario 1
 232:	c1 33       	cpi	r28, 0x31	; 49
 234:	29 f4       	brne	.+10     	; 0x240 <subRotinaAdm+0x5c>
 236:	60 e0       	ldi	r22, 0x00	; 0
 238:	72 e0       	ldi	r23, 0x02	; 2
					{
						strcpy(senhas.usuario1, novaSenha);
 23a:	80 e2       	ldi	r24, 0x20	; 32
 23c:	92 e0       	ldi	r25, 0x02	; 2
 23e:	99 d2       	rcall	.+1330   	; 0x772 <strcpy>
 240:	c2 33       	cpi	r28, 0x32	; 50
 242:	29 f4       	brne	.+10     	; 0x24e <subRotinaAdm+0x6a>
					}
					if(instrucaoDigitada == '2')//usuario 2
 244:	60 e0       	ldi	r22, 0x00	; 0
					{
						strcpy(senhas.usuario2, novaSenha);
 246:	72 e0       	ldi	r23, 0x02	; 2
 248:	86 e2       	ldi	r24, 0x26	; 38
 24a:	92 e0       	ldi	r25, 0x02	; 2
 24c:	92 d2       	rcall	.+1316   	; 0x772 <strcpy>
 24e:	ca 32       	cpi	r28, 0x2A	; 42
					}
					if(instrucaoDigitada == '*')//usuario adm
 250:	29 f4       	brne	.+10     	; 0x25c <subRotinaAdm+0x78>
					{
						strcpy(senhas.adm, novaSenha);
 252:	60 e0       	ldi	r22, 0x00	; 0
 254:	72 e0       	ldi	r23, 0x02	; 2
 256:	8c e2       	ldi	r24, 0x2C	; 44
 258:	92 e0       	ldi	r25, 0x02	; 2
 25a:	8b d2       	rcall	.+1302   	; 0x772 <strcpy>
					}
					tela1();
 25c:	63 df       	rcall	.-314    	; 0x124 <tela1>
					instrucaoDigitada = '\0';
 25e:	10 92 d6 02 	sts	0x02D6, r1	; 0x8002d6 <__data_end>
					break;//sai desse while entre no while(!sair)
				}
							
			}
		}else if(instrucaoDigitada == '#')//mais opcoes
 262:	4d c0       	rjmp	.+154    	; 0x2fe <subRotinaAdm+0x11a>
 264:	83 32       	cpi	r24, 0x23	; 35
 266:	09 f0       	breq	.+2      	; 0x26a <subRotinaAdm+0x86>
		{
			tela2();//status usuario e mais opcoes
 268:	4a c0       	rjmp	.+148    	; 0x2fe <subRotinaAdm+0x11a>
 26a:	65 df       	rcall	.-310    	; 0x136 <tela2>
			instrucaoDigitada = '\0';
 26c:	10 92 d6 02 	sts	0x02D6, r1	; 0x8002d6 <__data_end>
			while(1)
			{
				instrucaoDigitada = procuraTecla();
 270:	bd d0       	rcall	.+378    	; 0x3ec <procuraTecla>
 272:	80 93 d6 02 	sts	0x02D6, r24	; 0x8002d6 <__data_end>
 276:	8a 32       	cpi	r24, 0x2A	; 42
				if( instrucaoDigitada == '*')//opcao mudar status usuários
 278:	e9 f4       	brne	.+58     	; 0x2b4 <subRotinaAdm+0xd0>
 27a:	8f df       	rcall	.-226    	; 0x19a <telaDeStatusUsuario>
				{
					telaDeStatusUsuario();
 27c:	10 92 d6 02 	sts	0x02D6, r1	; 0x8002d6 <__data_end>
					instrucaoDigitada = '\0';
 280:	b5 d0       	rcall	.+362    	; 0x3ec <procuraTecla>
 282:	80 93 d6 02 	sts	0x02D6, r24	; 0x8002d6 <__data_end>
					while(1)
					{
						instrucaoDigitada = procuraTecla();
 286:	81 33       	cpi	r24, 0x31	; 49
 288:	41 f4       	brne	.+16     	; 0x29a <subRotinaAdm+0xb6>
 28a:	81 e0       	ldi	r24, 0x01	; 1
						if(instrucaoDigitada == '1')
 28c:	90 91 09 02 	lds	r25, 0x0209	; 0x800209 <usuario1Status>
						{
							usuario1Status = !usuario1Status;
 290:	91 11       	cpse	r25, r1
 292:	80 e0       	ldi	r24, 0x00	; 0
 294:	80 93 09 02 	sts	0x0209, r24	; 0x800209 <usuario1Status>
 298:	09 c0       	rjmp	.+18     	; 0x2ac <subRotinaAdm+0xc8>
							break; //sair desse while
						}
						if(instrucaoDigitada == '2')
 29a:	82 33       	cpi	r24, 0x32	; 50
 29c:	89 f7       	brne	.-30     	; 0x280 <subRotinaAdm+0x9c>
						{
							usuario2Status = !usuario2Status;
 29e:	81 e0       	ldi	r24, 0x01	; 1
 2a0:	90 91 08 02 	lds	r25, 0x0208	; 0x800208 <usuario2Status>
 2a4:	91 11       	cpse	r25, r1
 2a6:	80 e0       	ldi	r24, 0x00	; 0
 2a8:	80 93 08 02 	sts	0x0208, r24	; 0x800208 <usuario2Status>
							break; //sair desse while
						}
					}
					
					tela1();
					instrucaoDigitada = '\0';
 2ac:	3b df       	rcall	.-394    	; 0x124 <tela1>
 2ae:	10 92 d6 02 	sts	0x02D6, r1	; 0x8002d6 <__data_end>
					break;//sai desse while entre no while(!sair)
					
				}else if(instrucaoDigitada == '#')//mais opcoes			
 2b2:	25 c0       	rjmp	.+74     	; 0x2fe <subRotinaAdm+0x11a>
 2b4:	83 32       	cpi	r24, 0x23	; 35
				{
					tela3();//pedir horário ou mais opcoes
 2b6:	e1 f6       	brne	.-72     	; 0x270 <subRotinaAdm+0x8c>
 2b8:	47 df       	rcall	.-370    	; 0x148 <tela3>
					instrucaoDigitada = '\0';
 2ba:	10 92 d6 02 	sts	0x02D6, r1	; 0x8002d6 <__data_end>
					while(1)
					{
						instrucaoDigitada = procuraTecla();
 2be:	96 d0       	rcall	.+300    	; 0x3ec <procuraTecla>
 2c0:	80 93 d6 02 	sts	0x02D6, r24	; 0x8002d6 <__data_end>
 2c4:	8a 32       	cpi	r24, 0x2A	; 42
						if(instrucaoDigitada == '*')
 2c6:	c1 f0       	breq	.+48     	; 0x2f8 <subRotinaAdm+0x114>
 2c8:	83 32       	cpi	r24, 0x23	; 35
						{
							//subrotina pedir horas
							break;//sair desse while
						}else if(instrucaoDigitada == '#')//mais opcoes
 2ca:	c9 f7       	brne	.-14     	; 0x2be <subRotinaAdm+0xda>
						{ 
							tela4();//habilitar ou desabilitar modo noturno ou mais opcoes
 2cc:	46 df       	rcall	.-372    	; 0x15a <tela4>
							instrucaoDigitada = '\0';
 2ce:	10 92 d6 02 	sts	0x02D6, r1	; 0x8002d6 <__data_end>
							while(1)
							{
								instrucaoDigitada = procuraTecla();
 2d2:	8c d0       	rcall	.+280    	; 0x3ec <procuraTecla>
 2d4:	80 93 d6 02 	sts	0x02D6, r24	; 0x8002d6 <__data_end>
 2d8:	8a 32       	cpi	r24, 0x2A	; 42
								if(instrucaoDigitada == '*')
 2da:	41 f4       	brne	.+16     	; 0x2ec <subRotinaAdm+0x108>
 2dc:	81 e0       	ldi	r24, 0x01	; 1
								{
									modoNoturnoStatus = !modoNoturnoStatus;
 2de:	90 91 07 02 	lds	r25, 0x0207	; 0x800207 <modoNoturnoStatus>
 2e2:	91 11       	cpse	r25, r1
 2e4:	80 e0       	ldi	r24, 0x00	; 0
 2e6:	80 93 07 02 	sts	0x0207, r24	; 0x800207 <modoNoturnoStatus>
 2ea:	06 c0       	rjmp	.+12     	; 0x2f8 <subRotinaAdm+0x114>
									break;
 2ec:	83 32       	cpi	r24, 0x23	; 35
								}
								if(instrucaoDigitada == '#')
 2ee:	89 f7       	brne	.-30     	; 0x2d2 <subRotinaAdm+0xee>
 2f0:	81 e0       	ldi	r24, 0x01	; 1
								{
									sair = 1;
 2f2:	80 93 06 02 	sts	0x0206, r24	; 0x800206 <sair>
 2f6:	e7 d0       	rcall	.+462    	; 0x4c6 <limpa_reseta_cursor>
									limpa_reseta_cursor();
 2f8:	15 df       	rcall	.-470    	; 0x124 <tela1>
 2fa:	10 92 d6 02 	sts	0x02D6, r1	; 0x8002d6 <__data_end>
									break;
								}
							}break;
						}
					}
					tela1();
 2fe:	80 91 06 02 	lds	r24, 0x0206	; 0x800206 <sair>
					instrucaoDigitada = '\0';
 302:	88 23       	and	r24, r24
	delay_1s();
	
	tela1();// troca senhas ou mais opcoes
	sair = 0;
	PCMSK2 = 0x01;
	while(!sair)
 304:	09 f4       	brne	.+2      	; 0x308 <subRotinaAdm+0x124>
 306:	78 cf       	rjmp	.-272    	; 0x1f8 <subRotinaAdm+0x14>
 308:	cf 91       	pop	r28
 30a:	08 95       	ret

0000030c <ligaLinhas>:
char possivelTecla;

char ligaLinhas(int bitColuna, int indColuna)//coluna = numero correspondente da coluna
{
	
	PORTK = 0b01111111;
 30c:	9f e7       	ldi	r25, 0x7F	; 127
 30e:	90 93 08 01 	sts	0x0108, r25	; 0x800108 <__TEXT_REGION_LENGTH__+0x7c0108>
	//delay_1ms();

	if ((PINK & (1 << bitColuna)) == 0){
 312:	20 91 06 01 	lds	r18, 0x0106	; 0x800106 <__TEXT_REGION_LENGTH__+0x7c0106>
 316:	30 e0       	ldi	r19, 0x00	; 0
 318:	08 2e       	mov	r0, r24
 31a:	02 c0       	rjmp	.+4      	; 0x320 <ligaLinhas+0x14>
 31c:	35 95       	asr	r19
 31e:	27 95       	ror	r18
 320:	0a 94       	dec	r0
 322:	e2 f7       	brpl	.-8      	; 0x31c <ligaLinhas+0x10>
 324:	20 fd       	sbrc	r18, 0
 326:	05 c0       	rjmp	.+10     	; 0x332 <ligaLinhas+0x26>
	return teclado[0][indColuna];}
 328:	fb 01       	movw	r30, r22
 32a:	e6 5f       	subi	r30, 0xF6	; 246
 32c:	fd 4f       	sbci	r31, 0xFD	; 253
 32e:	80 81       	ld	r24, Z
 330:	08 95       	ret

	PORTK = 0b10111111;
 332:	9f eb       	ldi	r25, 0xBF	; 191
 334:	90 93 08 01 	sts	0x0108, r25	; 0x800108 <__TEXT_REGION_LENGTH__+0x7c0108>
	//delay_1ms();

	if ((PINK & (1 << bitColuna)) == 0){
 338:	20 91 06 01 	lds	r18, 0x0106	; 0x800106 <__TEXT_REGION_LENGTH__+0x7c0106>
 33c:	30 e0       	ldi	r19, 0x00	; 0
 33e:	08 2e       	mov	r0, r24
 340:	02 c0       	rjmp	.+4      	; 0x346 <ligaLinhas+0x3a>
 342:	35 95       	asr	r19
 344:	27 95       	ror	r18
 346:	0a 94       	dec	r0
 348:	e2 f7       	brpl	.-8      	; 0x342 <ligaLinhas+0x36>
 34a:	20 fd       	sbrc	r18, 0
 34c:	05 c0       	rjmp	.+10     	; 0x358 <ligaLinhas+0x4c>
		
	return teclado[1][indColuna];}
 34e:	fb 01       	movw	r30, r22
 350:	e6 5f       	subi	r30, 0xF6	; 246
 352:	fd 4f       	sbci	r31, 0xFD	; 253
 354:	84 81       	ldd	r24, Z+4	; 0x04
 356:	08 95       	ret

	PORTK = 0b11011111;
 358:	9f ed       	ldi	r25, 0xDF	; 223
 35a:	90 93 08 01 	sts	0x0108, r25	; 0x800108 <__TEXT_REGION_LENGTH__+0x7c0108>
	//delay_1ms();

	if ((PINK & (1 << bitColuna)) == 0){
 35e:	20 91 06 01 	lds	r18, 0x0106	; 0x800106 <__TEXT_REGION_LENGTH__+0x7c0106>
 362:	30 e0       	ldi	r19, 0x00	; 0
 364:	08 2e       	mov	r0, r24
 366:	02 c0       	rjmp	.+4      	; 0x36c <ligaLinhas+0x60>
 368:	35 95       	asr	r19
 36a:	27 95       	ror	r18
 36c:	0a 94       	dec	r0
 36e:	e2 f7       	brpl	.-8      	; 0x368 <ligaLinhas+0x5c>
 370:	20 fd       	sbrc	r18, 0
 372:	05 c0       	rjmp	.+10     	; 0x37e <ligaLinhas+0x72>
	return teclado[2][indColuna];}
 374:	fb 01       	movw	r30, r22
 376:	e6 5f       	subi	r30, 0xF6	; 246
 378:	fd 4f       	sbci	r31, 0xFD	; 253
 37a:	80 85       	ldd	r24, Z+8	; 0x08
 37c:	08 95       	ret

	PORTK = 0b11101111;
 37e:	9f ee       	ldi	r25, 0xEF	; 239
 380:	90 93 08 01 	sts	0x0108, r25	; 0x800108 <__TEXT_REGION_LENGTH__+0x7c0108>
	//delay_1ms();
	
	if ((PINK & (1 << bitColuna)) == 0){
 384:	20 91 06 01 	lds	r18, 0x0106	; 0x800106 <__TEXT_REGION_LENGTH__+0x7c0106>
 388:	30 e0       	ldi	r19, 0x00	; 0
 38a:	a9 01       	movw	r20, r18
 38c:	02 c0       	rjmp	.+4      	; 0x392 <ligaLinhas+0x86>
 38e:	55 95       	asr	r21
 390:	47 95       	ror	r20
 392:	8a 95       	dec	r24
 394:	e2 f7       	brpl	.-8      	; 0x38e <ligaLinhas+0x82>
 396:	40 fd       	sbrc	r20, 0
 398:	05 c0       	rjmp	.+10     	; 0x3a4 <ligaLinhas+0x98>
	return teclado[3][indColuna];}
 39a:	fb 01       	movw	r30, r22
 39c:	e6 5f       	subi	r30, 0xF6	; 246
 39e:	fd 4f       	sbci	r31, 0xFD	; 253
 3a0:	84 85       	ldd	r24, Z+12	; 0x0c
 3a2:	08 95       	ret
	
	return '\0';
 3a4:	80 e0       	ldi	r24, 0x00	; 0
}
 3a6:	08 95       	ret

000003a8 <procuraLinhas>:

char procuraLinhas(uint8_t coluna)
{
	if(coluna == 0b00000111)//coluna 1
 3a8:	87 30       	cpi	r24, 0x07	; 7
 3aa:	31 f4       	brne	.+12     	; 0x3b8 <procuraLinhas+0x10>
	{
		return ligaLinhas(3, 0);
 3ac:	60 e0       	ldi	r22, 0x00	; 0
 3ae:	70 e0       	ldi	r23, 0x00	; 0
 3b0:	83 e0       	ldi	r24, 0x03	; 3
 3b2:	90 e0       	ldi	r25, 0x00	; 0
 3b4:	ab cf       	rjmp	.-170    	; 0x30c <ligaLinhas>
 3b6:	08 95       	ret
	}
	if(coluna == 0b00001011)//coluna 2
 3b8:	8b 30       	cpi	r24, 0x0B	; 11
 3ba:	31 f4       	brne	.+12     	; 0x3c8 <procuraLinhas+0x20>
	{
		return ligaLinhas(2, 1);
 3bc:	61 e0       	ldi	r22, 0x01	; 1
 3be:	70 e0       	ldi	r23, 0x00	; 0
 3c0:	82 e0       	ldi	r24, 0x02	; 2
 3c2:	90 e0       	ldi	r25, 0x00	; 0
 3c4:	a3 cf       	rjmp	.-186    	; 0x30c <ligaLinhas>
 3c6:	08 95       	ret
	}
	if(coluna == 0b00001101)//coluna 3
 3c8:	8d 30       	cpi	r24, 0x0D	; 13
 3ca:	31 f4       	brne	.+12     	; 0x3d8 <procuraLinhas+0x30>
	{
		return ligaLinhas(1, 2);
 3cc:	62 e0       	ldi	r22, 0x02	; 2
 3ce:	70 e0       	ldi	r23, 0x00	; 0
 3d0:	81 e0       	ldi	r24, 0x01	; 1
 3d2:	90 e0       	ldi	r25, 0x00	; 0
 3d4:	9b cf       	rjmp	.-202    	; 0x30c <ligaLinhas>
 3d6:	08 95       	ret
	}
	if(coluna == 0b00001110)//coluna 4
 3d8:	8e 30       	cpi	r24, 0x0E	; 14
 3da:	31 f4       	brne	.+12     	; 0x3e8 <procuraLinhas+0x40>
	{
		return ligaLinhas(0, 3);
 3dc:	63 e0       	ldi	r22, 0x03	; 3
 3de:	70 e0       	ldi	r23, 0x00	; 0
 3e0:	80 e0       	ldi	r24, 0x00	; 0
 3e2:	90 e0       	ldi	r25, 0x00	; 0
 3e4:	93 cf       	rjmp	.-218    	; 0x30c <ligaLinhas>
 3e6:	08 95       	ret
	}
	return '\0';
 3e8:	80 e0       	ldi	r24, 0x00	; 0
}
 3ea:	08 95       	ret

000003ec <procuraTecla>:

char procuraTecla()
{
	PORTK = 0b00001111;//pull up do input ativado
 3ec:	8f e0       	ldi	r24, 0x0F	; 15
 3ee:	80 93 08 01 	sts	0x0108, r24	; 0x800108 <__TEXT_REGION_LENGTH__+0x7c0108>
	//delay_1ms();
	
	//while(!(PINK == 0b00001111));
	while(PINK == 0b00001111);//0000 1011
 3f2:	80 91 06 01 	lds	r24, 0x0106	; 0x800106 <__TEXT_REGION_LENGTH__+0x7c0106>
 3f6:	8f 30       	cpi	r24, 0x0F	; 15
 3f8:	e1 f3       	breq	.-8      	; 0x3f2 <procuraTecla+0x6>
	
	binColuna = PINK;
 3fa:	80 91 06 01 	lds	r24, 0x0106	; 0x800106 <__TEXT_REGION_LENGTH__+0x7c0106>
 3fe:	80 93 e3 02 	sts	0x02E3, r24	; 0x8002e3 <binColuna>
	/*possivelSenha = procuraLinhas(binColuna);
	delay_1ms();
	if(possivelSenha == procuraLinhas(binColuna)){
		return possivelSenha;
	}*/
	return procuraLinhas(binColuna);
 402:	d2 cf       	rjmp	.-92     	; 0x3a8 <procuraLinhas>
 404:	08 95       	ret

00000406 <config_delay_timer0_CTC>:
	// Enable: PC6 
	
	void config_delay_timer0_CTC(char tempo){
		
		//Modo CTC
		TCCR0A = 0x02;
 406:	92 e0       	ldi	r25, 0x02	; 2
 408:	94 bd       	out	0x24, r25	; 36
		
		//numero de clocks desejado
		OCR0A = tempo;
 40a:	87 bd       	out	0x27, r24	; 39
		
		//flag de interrupção
		TIFR0 = (1<<1); 
 40c:	95 bb       	out	0x15, r25	; 21
 40e:	08 95       	ret

00000410 <delay_CTC>:
	}

	void delay_CTC()
	{
		//Começa em 0
		TCNT0 = 0;
 410:	16 bc       	out	0x26, r1	; 38
		
		//limpa flag
		TIFR0 = (1<<1);
 412:	82 e0       	ldi	r24, 0x02	; 2
 414:	85 bb       	out	0x15, r24	; 21
		
		 //liga o timer
		 TCCR0B = 0x01;
 416:	81 e0       	ldi	r24, 0x01	; 1
 418:	85 bd       	out	0x25, r24	; 37
		
		while((TIFR0 & (1<<1)) == 0);
 41a:	a9 9b       	sbis	0x15, 1	; 21
 41c:	fe cf       	rjmp	.-4      	; 0x41a <delay_CTC+0xa>
		
		//desliga timer
		TCCR0B = 0x00;
 41e:	15 bc       	out	0x25, r1	; 37
 420:	08 95       	ret

00000422 <config_porta_avr>:
	}
	
	void config_porta_avr(){
		
		DDRA = 255; //Porta B irá funcionar como saída do AVR/entrada do Hitachi
 422:	8f ef       	ldi	r24, 0xFF	; 255
 424:	81 b9       	out	0x01, r24	; 1
		DDRC = 0b11100000;//PC0 e PC1 também serão saída do AVR/entrada do Hitachi
 426:	80 ee       	ldi	r24, 0xE0	; 224
 428:	87 b9       	out	0x07, r24	; 7
 42a:	08 95       	ret

0000042c <trigger_EN>:
		
	}

	void trigger_EN()
	{
		config_delay_timer0_CTC(255);
 42c:	8f ef       	ldi	r24, 0xFF	; 255
 42e:	eb df       	rcall	.-42     	; 0x406 <config_delay_timer0_CTC>
		
		//coloca HIGH
		PORTC |= (1<<6);
 430:	88 b1       	in	r24, 0x08	; 8
 432:	80 64       	ori	r24, 0x40	; 64
		delay_CTC();
 434:	88 b9       	out	0x08, r24	; 8
		delay_CTC();
 436:	ec df       	rcall	.-40     	; 0x410 <delay_CTC>
 438:	eb df       	rcall	.-42     	; 0x410 <delay_CTC>
		delay_CTC();
 43a:	ea df       	rcall	.-44     	; 0x410 <delay_CTC>
		//coloca LOW
		PORTC &= ~(1<<6);
 43c:	88 b1       	in	r24, 0x08	; 8
		delay_CTC();
 43e:	8f 7b       	andi	r24, 0xBF	; 191
 440:	88 b9       	out	0x08, r24	; 8
		delay_CTC();
 442:	e6 df       	rcall	.-52     	; 0x410 <delay_CTC>
 444:	e5 df       	rcall	.-54     	; 0x410 <delay_CTC>
		delay_CTC();
 446:	e4 cf       	rjmp	.-56     	; 0x410 <delay_CTC>
 448:	08 95       	ret

0000044a <send_data>:
 44a:	cf 93       	push	r28
	}

	void send_data(char _data_)
	{
 44c:	c8 2f       	mov	r28, r24
		config_delay_timer0_CTC(255);
 44e:	8f ef       	ldi	r24, 0xFF	; 255
 450:	da df       	rcall	.-76     	; 0x406 <config_delay_timer0_CTC>
		
		//RS = dados
		PORTC |= (1<<7);
 452:	88 b1       	in	r24, 0x08	; 8
 454:	80 68       	ori	r24, 0x80	; 128
 456:	88 b9       	out	0x08, r24	; 8
		
		PORTA = (_data_ & 0xF0);
 458:	8c 2f       	mov	r24, r28
 45a:	80 7f       	andi	r24, 0xF0	; 240
		trigger_EN();
 45c:	82 b9       	out	0x02, r24	; 2
		
		delay_CTC();
 45e:	e6 df       	rcall	.-52     	; 0x42c <trigger_EN>
		delay_CTC();
 460:	d7 df       	rcall	.-82     	; 0x410 <delay_CTC>
 462:	d6 df       	rcall	.-84     	; 0x410 <delay_CTC>
		delay_CTC();
 464:	d5 df       	rcall	.-86     	; 0x410 <delay_CTC>
 466:	20 e1       	ldi	r18, 0x10	; 16
		

		PORTA = ((_data_<<4) & 0xF0);
 468:	c2 9f       	mul	r28, r18
 46a:	c0 01       	movw	r24, r0
		trigger_EN();
 46c:	11 24       	eor	r1, r1
 46e:	82 b9       	out	0x02, r24	; 2

		delay_CTC();
 470:	dd df       	rcall	.-70     	; 0x42c <trigger_EN>
 472:	ce df       	rcall	.-100    	; 0x410 <delay_CTC>
		delay_CTC();
 474:	cd df       	rcall	.-102    	; 0x410 <delay_CTC>
 476:	cc df       	rcall	.-104    	; 0x410 <delay_CTC>
		delay_CTC();
 478:	cf 91       	pop	r28
 47a:	08 95       	ret

0000047c <send_command>:

	}
 47c:	cf 93       	push	r28
 47e:	c8 2f       	mov	r28, r24

	void send_command(char command)
	{
		config_delay_timer0_CTC(255);
 480:	8f ef       	ldi	r24, 0xFF	; 255
 482:	c1 df       	rcall	.-126    	; 0x406 <config_delay_timer0_CTC>
		
		//RS = comando
		PORTC &= ~(1<<7);
 484:	88 b1       	in	r24, 0x08	; 8
 486:	8f 77       	andi	r24, 0x7F	; 127
 488:	88 b9       	out	0x08, r24	; 8

		PORTA = (command & 0xF0);
 48a:	8c 2f       	mov	r24, r28
 48c:	80 7f       	andi	r24, 0xF0	; 240
		trigger_EN();
 48e:	82 b9       	out	0x02, r24	; 2
		
		delay_CTC();
 490:	cd df       	rcall	.-102    	; 0x42c <trigger_EN>
		delay_CTC();
 492:	be df       	rcall	.-132    	; 0x410 <delay_CTC>
 494:	bd df       	rcall	.-134    	; 0x410 <delay_CTC>
		delay_CTC();
 496:	bc df       	rcall	.-136    	; 0x410 <delay_CTC>
 498:	20 e1       	ldi	r18, 0x10	; 16

		PORTA = ((command<<4) & 0xF0);
 49a:	c2 9f       	mul	r28, r18
 49c:	c0 01       	movw	r24, r0
		trigger_EN();
 49e:	11 24       	eor	r1, r1
 4a0:	82 b9       	out	0x02, r24	; 2

		delay_CTC();
 4a2:	c4 df       	rcall	.-120    	; 0x42c <trigger_EN>
 4a4:	b5 df       	rcall	.-150    	; 0x410 <delay_CTC>
		delay_CTC();
 4a6:	b4 df       	rcall	.-152    	; 0x410 <delay_CTC>
 4a8:	b3 df       	rcall	.-154    	; 0x410 <delay_CTC>
		delay_CTC();
 4aa:	cf 91       	pop	r28
 4ac:	08 95       	ret

000004ae <send_string>:

	}
 4ae:	cf 93       	push	r28
 4b0:	df 93       	push	r29

	void send_string(char *string){
 4b2:	ec 01       	movw	r28, r24
		
		while(*string != 0){
 4b4:	02 c0       	rjmp	.+4      	; 0x4ba <send_string+0xc>
			send_data(*string);
 4b6:	c9 df       	rcall	.-110    	; 0x44a <send_data>
			string++;
 4b8:	21 96       	adiw	r28, 0x01	; 1

	}

	void send_string(char *string){
		
		while(*string != 0){
 4ba:	88 81       	ld	r24, Y
 4bc:	81 11       	cpse	r24, r1
 4be:	fb cf       	rjmp	.-10     	; 0x4b6 <send_string+0x8>
			send_data(*string);
			string++;
		}
	}
 4c0:	df 91       	pop	r29
 4c2:	cf 91       	pop	r28
 4c4:	08 95       	ret

000004c6 <limpa_reseta_cursor>:
	
	
	void limpa_reseta_cursor(){
		//Limpa display e reseta posição do cursor
		send_command(0x01);
 4c6:	81 e0       	ldi	r24, 0x01	; 1
 4c8:	d9 df       	rcall	.-78     	; 0x47c <send_command>
		delay_CTC();
 4ca:	a2 df       	rcall	.-188    	; 0x410 <delay_CTC>
		delay_CTC();
 4cc:	a1 df       	rcall	.-190    	; 0x410 <delay_CTC>
		delay_CTC();
 4ce:	a0 df       	rcall	.-192    	; 0x410 <delay_CTC>
 4d0:	07 c1       	rjmp	.+526    	; 0x6e0 <delay_1s>
		delay_1s();
 4d2:	08 95       	ret

000004d4 <config_lcd_padrao>:
 4d4:	88 b1       	in	r24, 0x08	; 8
 4d6:	8f 7d       	andi	r24, 0xDF	; 223
		
		//FUNCTION SET:
		//Interface 4 bits
		//2 linhas
		//Caracteres 5x10
		PORTC &= ~(1<<5);
 4d8:	88 b9       	out	0x08, r24	; 8
		PORTC &= ~(1<<7);
 4da:	88 b1       	in	r24, 0x08	; 8
 4dc:	8f 77       	andi	r24, 0x7F	; 127
 4de:	88 b9       	out	0x08, r24	; 8
		PORTA = 0x28;
 4e0:	88 e2       	ldi	r24, 0x28	; 40
 4e2:	82 b9       	out	0x02, r24	; 2
		trigger_EN();
 4e4:	a3 df       	rcall	.-186    	; 0x42c <trigger_EN>
		delay_CTC();
 4e6:	94 df       	rcall	.-216    	; 0x410 <delay_CTC>
		delay_CTC();
 4e8:	93 df       	rcall	.-218    	; 0x410 <delay_CTC>
		delay_CTC();
 4ea:	92 df       	rcall	.-220    	; 0x410 <delay_CTC>
		
		
		//ENTRY MODE SET:
		//Incrementa posição do cursor
		send_command(0x06);
 4ec:	86 e0       	ldi	r24, 0x06	; 6
 4ee:	c6 df       	rcall	.-116    	; 0x47c <send_command>
		
		
		//CURSOR/DISPLAY SHIFT:
		//Cursor move
		//Para direita
		send_command(0x14);
 4f0:	84 e1       	ldi	r24, 0x14	; 20
 4f2:	c4 df       	rcall	.-120    	; 0x47c <send_command>
 4f4:	8e e0       	ldi	r24, 0x0E	; 14
		
		//DISPLAY CONTROL:
		//Display ligado
		//Cursor ligado
		//Cursor não pisca
		send_command(0x0E);
 4f6:	c2 cf       	rjmp	.-124    	; 0x47c <send_command>
 4f8:	08 95       	ret

000004fa <proxima_linha>:
 4fa:	80 ec       	ldi	r24, 0xC0	; 192
 4fc:	bf df       	rcall	.-130    	; 0x47c <send_command>
		
	}
	
	void proxima_linha(){
		send_command(0xC0);
		delay_CTC();
 4fe:	88 df       	rcall	.-240    	; 0x410 <delay_CTC>
		delay_CTC();
 500:	87 df       	rcall	.-242    	; 0x410 <delay_CTC>
 502:	86 cf       	rjmp	.-244    	; 0x410 <delay_CTC>
		delay_CTC();
 504:	08 95       	ret

00000506 <main>:
 506:	8f ef       	ldi	r24, 0xFF	; 255
 508:	84 b9       	out	0x04, r24	; 4

int main(void)
{
	//------------- organizacao das interrupçoes do teclado:
	DDRB = 0xFF;
	PORTB = 0;
 50a:	15 b8       	out	0x05, r1	; 5
	DDRK = 0b11110000; //  (1) PORTK(0-3) output / (0) PORTK(4-7) input
 50c:	80 ef       	ldi	r24, 0xF0	; 240
 50e:	80 93 07 01 	sts	0x0107, r24	; 0x800107 <__TEXT_REGION_LENGTH__+0x7c0107>
	PORTK = 0b00001111; //pull up do input ativado
 512:	8f e0       	ldi	r24, 0x0F	; 15
 514:	80 93 08 01 	sts	0x0108, r24	; 0x800108 <__TEXT_REGION_LENGTH__+0x7c0108>
	PCICR |= 0b00000100; //ativa interrupção dos pinos PCINT16 ao PCINT23 = K0 ao K7
 518:	e8 e6       	ldi	r30, 0x68	; 104
 51a:	f0 e0       	ldi	r31, 0x00	; 0
 51c:	80 81       	ld	r24, Z
 51e:	84 60       	ori	r24, 0x04	; 4
 520:	80 83       	st	Z, r24
	PCMSK2 |= 0x0F; //ínterrupção nos pinos K0 até K7;
 522:	ed e6       	ldi	r30, 0x6D	; 109
 524:	f0 e0       	ldi	r31, 0x00	; 0
 526:	80 81       	ld	r24, Z
 528:	8f 60       	ori	r24, 0x0F	; 15
 52a:	80 83       	st	Z, r24
	sei(); //set enable interrupts -- seta 1 no bit I do status register
 52c:	78 94       	sei
	//-------------------------------
	config_porta_avr();
 52e:	79 df       	rcall	.-270    	; 0x422 <config_porta_avr>
	config_lcd_padrao();
 530:	d1 df       	rcall	.-94     	; 0x4d4 <config_lcd_padrao>
	limpa_reseta_cursor();
 532:	c9 df       	rcall	.-110    	; 0x4c6 <limpa_reseta_cursor>
 534:	57 de       	rcall	.-850    	; 0x1e4 <subRotinaAdm>
    while (1){
		subRotinaAdm();		
 536:	fe cf       	rjmp	.-4      	; 0x534 <main+0x2e>

00000538 <__vector_11>:
 538:	1f 92       	push	r1
 53a:	0f 92       	push	r0
	}
}
	
ISR(PCINT2_vect){ //pinos K0 até K7
 53c:	0f b6       	in	r0, 0x3f	; 63
 53e:	0f 92       	push	r0
 540:	11 24       	eor	r1, r1
 542:	0b b6       	in	r0, 0x3b	; 59
 544:	0f 92       	push	r0
 546:	2f 93       	push	r18
 548:	3f 93       	push	r19
 54a:	4f 93       	push	r20
 54c:	5f 93       	push	r21
 54e:	6f 93       	push	r22
 550:	7f 93       	push	r23
 552:	8f 93       	push	r24
 554:	9f 93       	push	r25
 556:	af 93       	push	r26
 558:	bf 93       	push	r27
 55a:	ef 93       	push	r30
 55c:	ff 93       	push	r31
	if(chamada == 0){
 55e:	80 91 d7 02 	lds	r24, 0x02D7	; 0x8002d7 <chamada>
 562:	81 11       	cpse	r24, r1
 564:	52 c0       	rjmp	.+164    	; 0x60a <__vector_11+0xd2>
		chamada = 1;
 566:	81 e0       	ldi	r24, 0x01	; 1
 568:	80 93 d7 02 	sts	0x02D7, r24	; 0x8002d7 <chamada>
	send_data(0b00100011);
 56c:	83 e2       	ldi	r24, 0x23	; 35
 56e:	6d df       	rcall	.-294    	; 0x44a <send_data>
	tecla = procuraTecla();
 570:	3d df       	rcall	.-390    	; 0x3ec <procuraTecla>
 572:	80 93 e2 02 	sts	0x02E2, r24	; 0x8002e2 <tecla>
	send_data(0b00100011);
 576:	83 e2       	ldi	r24, 0x23	; 35
 578:	68 df       	rcall	.-304    	; 0x44a <send_data>
 57a:	80 91 e2 02 	lds	r24, 0x02E2	; 0x8002e2 <tecla>
	if ((tecla == '1')){
 57e:	81 33       	cpi	r24, 0x31	; 49
 580:	09 f4       	brne	.+2      	; 0x584 <__vector_11+0x4c>
		send_data(0b00110001);
 582:	63 df       	rcall	.-314    	; 0x44a <send_data>
 584:	80 91 e2 02 	lds	r24, 0x02E2	; 0x8002e2 <tecla>
	}
	if ((tecla == '2')){
 588:	82 33       	cpi	r24, 0x32	; 50
 58a:	09 f4       	brne	.+2      	; 0x58e <__vector_11+0x56>
		send_data(0b00110010);
 58c:	5e df       	rcall	.-324    	; 0x44a <send_data>
	}
	if ((tecla == '3')){
 58e:	80 91 e2 02 	lds	r24, 0x02E2	; 0x8002e2 <tecla>
 592:	83 33       	cpi	r24, 0x33	; 51
 594:	09 f4       	brne	.+2      	; 0x598 <__vector_11+0x60>
		send_data(0b00110011);
 596:	59 df       	rcall	.-334    	; 0x44a <send_data>
	}
	if ((tecla == '4')){
 598:	80 91 e2 02 	lds	r24, 0x02E2	; 0x8002e2 <tecla>
 59c:	84 33       	cpi	r24, 0x34	; 52
		send_data(0b00110100);
 59e:	09 f4       	brne	.+2      	; 0x5a2 <__vector_11+0x6a>
 5a0:	54 df       	rcall	.-344    	; 0x44a <send_data>
	}
	if ((tecla == '5')){
 5a2:	80 91 e2 02 	lds	r24, 0x02E2	; 0x8002e2 <tecla>
 5a6:	85 33       	cpi	r24, 0x35	; 53
		send_data(0b00110101);
 5a8:	09 f4       	brne	.+2      	; 0x5ac <__vector_11+0x74>
 5aa:	4f df       	rcall	.-354    	; 0x44a <send_data>
	}
	if ((tecla == '6')){
 5ac:	80 91 e2 02 	lds	r24, 0x02E2	; 0x8002e2 <tecla>
 5b0:	86 33       	cpi	r24, 0x36	; 54
		send_data(0b00110110);
 5b2:	09 f4       	brne	.+2      	; 0x5b6 <__vector_11+0x7e>
 5b4:	4a df       	rcall	.-364    	; 0x44a <send_data>
	}
	if ((tecla == '7')){
 5b6:	80 91 e2 02 	lds	r24, 0x02E2	; 0x8002e2 <tecla>
 5ba:	87 33       	cpi	r24, 0x37	; 55
		send_data(0b00110111);
 5bc:	09 f4       	brne	.+2      	; 0x5c0 <__vector_11+0x88>
	}
	if ((tecla == '8')){
 5be:	45 df       	rcall	.-374    	; 0x44a <send_data>
 5c0:	80 91 e2 02 	lds	r24, 0x02E2	; 0x8002e2 <tecla>
 5c4:	88 33       	cpi	r24, 0x38	; 56
		send_data(0b00111000);
 5c6:	09 f4       	brne	.+2      	; 0x5ca <__vector_11+0x92>
	}
	if ((tecla == '9')){
 5c8:	40 df       	rcall	.-384    	; 0x44a <send_data>
 5ca:	80 91 e2 02 	lds	r24, 0x02E2	; 0x8002e2 <tecla>
		send_data(0b00111001);
 5ce:	89 33       	cpi	r24, 0x39	; 57
 5d0:	09 f4       	brne	.+2      	; 0x5d4 <__vector_11+0x9c>
	}
	if ((tecla == 'A')){
 5d2:	3b df       	rcall	.-394    	; 0x44a <send_data>
 5d4:	80 91 e2 02 	lds	r24, 0x02E2	; 0x8002e2 <tecla>
		send_data(0b01000001);
 5d8:	81 34       	cpi	r24, 0x41	; 65
 5da:	09 f4       	brne	.+2      	; 0x5de <__vector_11+0xa6>
	}
	if ((tecla == 'B')){
 5dc:	36 df       	rcall	.-404    	; 0x44a <send_data>
 5de:	80 91 e2 02 	lds	r24, 0x02E2	; 0x8002e2 <tecla>
 5e2:	82 34       	cpi	r24, 0x42	; 66
		send_data(0b01000010);
 5e4:	09 f4       	brne	.+2      	; 0x5e8 <__vector_11+0xb0>
	}
	if ((tecla == 'C')){
 5e6:	31 df       	rcall	.-414    	; 0x44a <send_data>
 5e8:	80 91 e2 02 	lds	r24, 0x02E2	; 0x8002e2 <tecla>
		send_data(0b01000011);
 5ec:	83 34       	cpi	r24, 0x43	; 67
 5ee:	21 f4       	brne	.+8      	; 0x5f8 <__vector_11+0xc0>
		intruso_detectado = 1;
 5f0:	2c df       	rcall	.-424    	; 0x44a <send_data>
 5f2:	81 e0       	ldi	r24, 0x01	; 1
 5f4:	80 93 d8 02 	sts	0x02D8, r24	; 0x8002d8 <intruso_detectado>
	}
	if ((tecla == 'D')){
 5f8:	80 91 e2 02 	lds	r24, 0x02E2	; 0x8002e2 <tecla>
 5fc:	84 34       	cpi	r24, 0x44	; 68
		send_data(0b01000100);
 5fe:	19 f4       	brne	.+6      	; 0x606 <__vector_11+0xce>
 600:	24 df       	rcall	.-440    	; 0x44a <send_data>
		intruso_detectado = 0;
 602:	10 92 d8 02 	sts	0x02D8, r1	; 0x8002d8 <intruso_detectado>
			resultado_validacao();
		}
	}*/
	
	//PCIFR = (1<<2); //reseta flag da interrupção
	delay_1s(); //resolve bug de n conseguir enviar as outras teclas dps
 606:	6c d0       	rcall	.+216    	; 0x6e0 <delay_1s>
 608:	05 c0       	rjmp	.+10     	; 0x614 <__vector_11+0xdc>
 60a:	10 92 d7 02 	sts	0x02D7, r1	; 0x8002d7 <chamada>
	}else{
		chamada = 0;
 60e:	8f e0       	ldi	r24, 0x0F	; 15
		PORTK = 0b00001111; //reseta a porta pra proxima leitura
 610:	80 93 08 01 	sts	0x0108, r24	; 0x800108 <__TEXT_REGION_LENGTH__+0x7c0108>
 614:	ff 91       	pop	r31
	}
}
 616:	ef 91       	pop	r30
 618:	bf 91       	pop	r27
 61a:	af 91       	pop	r26
 61c:	9f 91       	pop	r25
 61e:	8f 91       	pop	r24
 620:	7f 91       	pop	r23
 622:	6f 91       	pop	r22
 624:	5f 91       	pop	r21
 626:	4f 91       	pop	r20
 628:	3f 91       	pop	r19
 62a:	2f 91       	pop	r18
 62c:	0f 90       	pop	r0
 62e:	0b be       	out	0x3b, r0	; 59
 630:	0f 90       	pop	r0
 632:	0f be       	out	0x3f, r0	; 63
 634:	0f 90       	pop	r0
 636:	1f 90       	pop	r1
 638:	18 95       	reti

0000063a <__vector_20>:
 63a:	1f 92       	push	r1

ISR(TIMER1_OVF_vect){
 63c:	0f 92       	push	r0
 63e:	0f b6       	in	r0, 0x3f	; 63
 640:	0f 92       	push	r0
 642:	11 24       	eor	r1, r1
 644:	2f 93       	push	r18
 646:	3f 93       	push	r19
 648:	8f 93       	push	r24
	TCCR1A = 0; //modo normal
 64a:	10 92 80 00 	sts	0x0080, r1	; 0x800080 <__TEXT_REGION_LENGTH__+0x7c0080>
	TCCR1B = 0x1; //sem prescaler //se botar em 0 para o timer
 64e:	81 e0       	ldi	r24, 0x01	; 1
 650:	80 93 81 00 	sts	0x0081, r24	; 0x800081 <__TEXT_REGION_LENGTH__+0x7c0081>
	TCNT1 = 55536; //como o processador tem 16Mhz e o timer tem 16bits, precisamos de 10000 contagens p bater meio periodo da onda de 800hz
 654:	20 ef       	ldi	r18, 0xF0	; 240
 656:	38 ed       	ldi	r19, 0xD8	; 216
 658:	30 93 85 00 	sts	0x0085, r19	; 0x800085 <__TEXT_REGION_LENGTH__+0x7c0085>
 65c:	20 93 84 00 	sts	0x0084, r18	; 0x800084 <__TEXT_REGION_LENGTH__+0x7c0084>
	TIFR1 = 1;
 660:	86 bb       	out	0x16, r24	; 22
}
 662:	8f 91       	pop	r24
 664:	3f 91       	pop	r19
 666:	2f 91       	pop	r18
 668:	0f 90       	pop	r0
 66a:	0f be       	out	0x3f, r0	; 63
 66c:	0f 90       	pop	r0
 66e:	1f 90       	pop	r1
 670:	18 95       	reti

00000672 <__vector_35>:
ISR(TIMER3_OVF_vect){
 672:	1f 92       	push	r1
 674:	0f 92       	push	r0
 676:	0f b6       	in	r0, 0x3f	; 63
 678:	0f 92       	push	r0
 67a:	11 24       	eor	r1, r1
 67c:	2f 93       	push	r18
 67e:	3f 93       	push	r19
 680:	8f 93       	push	r24
	TCCR3A = 0; //modo normal
 682:	10 92 90 00 	sts	0x0090, r1	; 0x800090 <__TEXT_REGION_LENGTH__+0x7c0090>
	TCCR3B = 0x1; //sem prescaler
 686:	81 e0       	ldi	r24, 0x01	; 1
 688:	80 93 91 00 	sts	0x0091, r24	; 0x800091 <__TEXT_REGION_LENGTH__+0x7c0091>
	TCNT3 = 45536; //como o processador tem 16Mhz e o timer tem 16bits, precisamos de 20000 contagens p bater meio periodo da onda de 400hz
 68c:	20 ee       	ldi	r18, 0xE0	; 224
 68e:	31 eb       	ldi	r19, 0xB1	; 177
 690:	30 93 95 00 	sts	0x0095, r19	; 0x800095 <__TEXT_REGION_LENGTH__+0x7c0095>
 694:	20 93 94 00 	sts	0x0094, r18	; 0x800094 <__TEXT_REGION_LENGTH__+0x7c0094>
	TIFR3 = 1;
 698:	88 bb       	out	0x18, r24	; 24
}
 69a:	8f 91       	pop	r24
 69c:	3f 91       	pop	r19
 69e:	2f 91       	pop	r18
 6a0:	0f 90       	pop	r0
 6a2:	0f be       	out	0x3f, r0	; 63
 6a4:	0f 90       	pop	r0
 6a6:	1f 90       	pop	r1
 6a8:	18 95       	reti

000006aa <__vector_45>:
ISR(TIMER4_OVF_vect){
 6aa:	1f 92       	push	r1
 6ac:	0f 92       	push	r0
 6ae:	0f b6       	in	r0, 0x3f	; 63
 6b0:	0f 92       	push	r0
 6b2:	11 24       	eor	r1, r1
 6b4:	8f 93       	push	r24
 6b6:	9f 93       	push	r25
	TCCR4A = 0; //modo normal
 6b8:	10 92 a0 00 	sts	0x00A0, r1	; 0x8000a0 <__TEXT_REGION_LENGTH__+0x7c00a0>
	TCCR4B = 0x3; //prescaler de 64
 6bc:	83 e0       	ldi	r24, 0x03	; 3
 6be:	80 93 a1 00 	sts	0x00A1, r24	; 0x8000a1 <__TEXT_REGION_LENGTH__+0x7c00a1>
	TCNT4 = 3036; //como o processador tem 16Mhz e o timer tem 16bits, precisamos de 4000000 contagens p bater meio periodo da onda de 2hz. 4000000/64 = 62500
 6c2:	8c ed       	ldi	r24, 0xDC	; 220
 6c4:	9b e0       	ldi	r25, 0x0B	; 11
 6c6:	90 93 a5 00 	sts	0x00A5, r25	; 0x8000a5 <__TEXT_REGION_LENGTH__+0x7c00a5>
 6ca:	80 93 a4 00 	sts	0x00A4, r24	; 0x8000a4 <__TEXT_REGION_LENGTH__+0x7c00a4>
	TIFR4 = 1;
 6ce:	81 e0       	ldi	r24, 0x01	; 1
 6d0:	89 bb       	out	0x19, r24	; 25
 6d2:	9f 91       	pop	r25
 6d4:	8f 91       	pop	r24
 6d6:	0f 90       	pop	r0
 6d8:	0f be       	out	0x3f, r0	; 63
 6da:	0f 90       	pop	r0
 6dc:	1f 90       	pop	r1
 6de:	18 95       	reti

000006e0 <delay_1s>:
	while((TIFR5 & (1<<0)) == 0); //espera overflow
}

//esse delay acho q n vai precisar interrupção
void delay_1s(){
	TCCR5A = 0; //modo normal
 6e0:	10 92 20 01 	sts	0x0120, r1	; 0x800120 <__TEXT_REGION_LENGTH__+0x7c0120>
	TCCR5B = 0x4; //prescaler de 256
 6e4:	84 e0       	ldi	r24, 0x04	; 4
 6e6:	80 93 21 01 	sts	0x0121, r24	; 0x800121 <__TEXT_REGION_LENGTH__+0x7c0121>
	TCNT5 = 3036; //como o processador tem 16Mhz e o timer tem 16bits, precisamos de 4000000 contagens p bater meio periodo da onda de 2hz. 4000000/64 = 62500
 6ea:	8c ed       	ldi	r24, 0xDC	; 220
 6ec:	9b e0       	ldi	r25, 0x0B	; 11
 6ee:	90 93 25 01 	sts	0x0125, r25	; 0x800125 <__TEXT_REGION_LENGTH__+0x7c0125>
 6f2:	80 93 24 01 	sts	0x0124, r24	; 0x800124 <__TEXT_REGION_LENGTH__+0x7c0124>
	TIFR5 = (1<<0); //limpa flag
 6f6:	81 e0       	ldi	r24, 0x01	; 1
 6f8:	8a bb       	out	0x1a, r24	; 26
	while((TIFR5 & (1<<0)) == 0); //espera overflow
 6fa:	d0 9b       	sbis	0x1a, 0	; 26
 6fc:	fe cf       	rjmp	.-4      	; 0x6fa <delay_1s+0x1a>
}
 6fe:	08 95       	ret

00000700 <lendo_senha>:
// }


void lendo_senha(char tecla){
			
	senha[nr_digitados] = tecla;
 700:	e0 91 df 02 	lds	r30, 0x02DF	; 0x8002df <nr_digitados>
 704:	f0 91 e0 02 	lds	r31, 0x02E0	; 0x8002e0 <nr_digitados+0x1>
 708:	e7 52       	subi	r30, 0x27	; 39
 70a:	fd 4f       	sbci	r31, 0xFD	; 253
 70c:	80 83       	st	Z, r24
			
	//envia asterisco
	send_data(0x2A);
 70e:	8a e2       	ldi	r24, 0x2A	; 42
 710:	9c de       	rcall	.-712    	; 0x44a <send_data>
	nr_digitados++;
 712:	80 91 df 02 	lds	r24, 0x02DF	; 0x8002df <nr_digitados>
 716:	90 91 e0 02 	lds	r25, 0x02E0	; 0x8002e0 <nr_digitados+0x1>
 71a:	01 96       	adiw	r24, 0x01	; 1
 71c:	90 93 e0 02 	sts	0x02E0, r25	; 0x8002e0 <nr_digitados+0x1>
 720:	80 93 df 02 	sts	0x02DF, r24	; 0x8002df <nr_digitados>
 724:	08 95       	ret

00000726 <subRotinaTrocaSenha>:
	
}

const char* subRotinaTrocaSenha()
{	
	for (int i = 0; i < 5; i++) {
 726:	80 e0       	ldi	r24, 0x00	; 0
 728:	90 e0       	ldi	r25, 0x00	; 0
 72a:	05 c0       	rjmp	.+10     	; 0x736 <subRotinaTrocaSenha+0x10>
		senha[i] = '\0';
 72c:	fc 01       	movw	r30, r24
 72e:	e7 52       	subi	r30, 0x27	; 39
 730:	fd 4f       	sbci	r31, 0xFD	; 253
 732:	10 82       	st	Z, r1
	
}

const char* subRotinaTrocaSenha()
{	
	for (int i = 0; i < 5; i++) {
 734:	01 96       	adiw	r24, 0x01	; 1
 736:	85 30       	cpi	r24, 0x05	; 5
 738:	91 05       	cpc	r25, r1
 73a:	c4 f3       	brlt	.-16     	; 0x72c <subRotinaTrocaSenha+0x6>
		senha[i] = '\0';
	}
	nr_digitados = 0;
 73c:	10 92 e0 02 	sts	0x02E0, r1	; 0x8002e0 <nr_digitados+0x1>
 740:	10 92 df 02 	sts	0x02DF, r1	; 0x8002df <nr_digitados>

	while(nr_digitados < 5)
 744:	0c c0       	rjmp	.+24     	; 0x75e <subRotinaTrocaSenha+0x38>
	{
			if(nr_digitados < 5){
 746:	05 97       	sbiw	r24, 0x05	; 5
 748:	54 f4       	brge	.+20     	; 0x75e <subRotinaTrocaSenha+0x38>
				tecla = procuraTecla();
 74a:	50 de       	rcall	.-864    	; 0x3ec <procuraTecla>
 74c:	80 93 e2 02 	sts	0x02E2, r24	; 0x8002e2 <tecla>
				delay_1s();
 750:	c7 df       	rcall	.-114    	; 0x6e0 <delay_1s>
 752:	8f e0       	ldi	r24, 0x0F	; 15
				PORTK = 0b00001111;
 754:	80 93 08 01 	sts	0x0108, r24	; 0x800108 <__TEXT_REGION_LENGTH__+0x7c0108>
 758:	80 91 e2 02 	lds	r24, 0x02E2	; 0x8002e2 <tecla>
				lendo_senha(tecla);
 75c:	d1 df       	rcall	.-94     	; 0x700 <lendo_senha>
 75e:	80 91 df 02 	lds	r24, 0x02DF	; 0x8002df <nr_digitados>
	for (int i = 0; i < 5; i++) {
		senha[i] = '\0';
	}
	nr_digitados = 0;

	while(nr_digitados < 5)
 762:	90 91 e0 02 	lds	r25, 0x02E0	; 0x8002e0 <nr_digitados+0x1>
 766:	85 30       	cpi	r24, 0x05	; 5
 768:	91 05       	cpc	r25, r1
 76a:	6c f3       	brlt	.-38     	; 0x746 <subRotinaTrocaSenha+0x20>
 76c:	89 ed       	ldi	r24, 0xD9	; 217
				PORTK = 0b00001111;
				lendo_senha(tecla);
			}
	}
	return senha;
}
 76e:	92 e0       	ldi	r25, 0x02	; 2
 770:	08 95       	ret

00000772 <strcpy>:
 772:	fb 01       	movw	r30, r22
 774:	dc 01       	movw	r26, r24
 776:	01 90       	ld	r0, Z+
 778:	0d 92       	st	X+, r0
 77a:	00 20       	and	r0, r0
 77c:	e1 f7       	brne	.-8      	; 0x776 <strcpy+0x4>
 77e:	08 95       	ret

00000780 <_exit>:
 780:	f8 94       	cli

00000782 <__stop_program>:
 782:	ff cf       	rjmp	.-2      	; 0x782 <__stop_program>
